(dp0
(I14
I5
I5
I69
I20161115
I0
tp1
I141509
s(I14
I6
I7
I69
I20161121
I0
tp2
I141913
s(I14
I6
I2
I67
I20161121
I0
tp3
I142218
s(I14
I5
I6
I92
I20161115
I0
tp4
I141633
s(I14
I7
I4
I88
I20161122
I0
tp5
I140390
s(I14
I7
I2
I16
I20161122
I0
tp6
I140114
s(I14
I5
I4
I57
I20161115
I0
tp7
I141396
s(I14
I6
I8
I67
I20161121
I0
tp8
I142015
s(I14
I6
I2
I31
I20161121
I0
tp9
I142182
s(I14
I7
I4
I7
I20161122
I0
tp10
I140309
s(I14
I5
I7
I47
I20161115
I0
tp11
I140748
s(I14
I5
I8
I73
I20161115
I0
tp12
I140875
s(I14
I5
I2
I68
I20161115
I0
tp13
I140571
s(I14
I6
I8
I1
I20161121
I0
tp14
I141949
s(I14
I7
I1
I10
I20161122
I0
tp15
I140009
s(I14
I5
I7
I7
I20161115
I0
tp16
I140708
s(I14
I5
I7
I77
I20161115
I0
tp17
I140778
s(I14
I7
I3
I41
I20161122
I0
tp18
I140242
s(I14
I7
I7
I7
I20161122
I0
tp19
I141129
s(I14
I7
I1
I58
I20161122
I0
tp20
I140057
s(I14
I6
I7
I33
I20161121
I0
tp21
I141877
s(I14
I7
I7
I67
I20161122
I0
tp22
I141189
s(I14
I7
I6
I56
I20161122
I0
tp23
I141067
s(I14
I7
I5
I44
I20161122
I0
tp24
I140949
s(I14
I6
I5
I14
I20161121
I0
tp25
I141658
s(I14
I5
I2
I31
I20161115
I0
tp26
I140534
s(I14
I6
I1
I89
I20161121
I0
tp27
I142138
s(I14
I5
I1
I27
I20161115
I0
tp28
I140432
s(I14
I6
I4
I33
I20161121
I0
tp29
I142393
s(I14
I5
I5
I90
I20161115
I0
tp30
I141530
s(I14
I6
I2
I99
I20161121
I0
tp31
I142250
s(I14
I6
I8
I70
I20161121
I0
tp32
I142018
s(I14
I6
I1
I29
I20161121
I0
tp33
I142078
s(I14
I5
I1
I90
I20161115
I0
tp34
I140495
s(I14
I5
I1
I34
I20161115
I0
tp35
I140439
s(I14
I6
I6
I51
I20161121
I0
tp36
I141794
s(I14
I6
I2
I63
I20161121
I0
tp37
I142214
s(I14
I7
I3
I52
I20161122
I0
tp38
I140253
s(I14
I5
I8
I80
I20161115
I0
tp39
I140882
s(I14
I5
I8
I26
I20161115
I0
tp40
I140828
s(I14
I7
I6
I69
I20161122
I0
tp41
I141080
s(I14
I6
I4
I97
I20161121
I0
tp42
I142457
s(I14
I5
I7
I86
I20161115
I0
tp43
I140787
s(I14
I5
I8
I50
I20161115
I0
tp44
I140852
s(I14
I5
I6
I96
I20161115
I0
tp45
I141637
s(I14
I6
I1
I43
I20161121
I0
tp46
I142092
s(I14
I6
I3
I6
I20161121
I0
tp47
I142258
s(I14
I5
I3
I8
I20161115
I0
tp48
I140609
s(I14
I7
I6
I53
I20161122
I0
tp49
I141064
s(I14
I7
I1
I29
I20161122
I0
tp50
I140028
s(I14
I6
I6
I45
I20161121
I0
tp51
I141788
s(I14
I5
I8
I87
I20161115
I0
tp52
I140889
s(I14
I5
I3
I38
I20161115
I0
tp53
I140639
s(I14
I6
I3
I108
I20161121
I0
tp54
I142360
s(I14
I7
I2
I6
I20161122
I0
tp55
I140104
s(I14
I5
I8
I94
I20161115
I0
tp56
I140896
s(I14
I7
I8
I90
I20161122
I0
tp57
I141316
s(I14
I7
I7
I99
I20161122
I0
tp58
I141221
s(I14
I7
I5
I79
I20161122
I0
tp59
I140984
s(I14
I6
I8
I16
I20161121
I0
tp60
I141964
s(I14
I6
I3
I46
I20161121
I0
tp61
I142298
s(I14
I7
I7
I84
I20161122
I0
tp62
I141206
s(I14
I6
I8
I32
I20161121
I0
tp63
I141980
s(I14
I6
I3
I30
I20161121
I0
tp64
I142282
s(I14
I5
I8
I96
I20161115
I0
tp65
I140898
s(I14
I6
I6
I19
I20161121
I0
tp66
I141762
s(I14
I7
I3
I50
I20161122
I0
tp67
I140251
s(I14
I7
I3
I91
I20161122
I0
tp68
I140292
s(I14
I7
I6
I22
I20161122
I0
tp69
I141033
s(I14
I5
I6
I70
I20161115
I0
tp70
I141611
s(I14
I6
I8
I69
I20161121
I0
tp71
I142017
s(I14
I7
I3
I2
I20161122
I0
tp72
I140203
s(I14
I6
I6
I70
I20161121
I0
tp73
I141813
s(I14
I5
I4
I87
I20161115
I0
tp74
I141426
s(I14
I5
I4
I25
I20161115
I0
tp75
I141364
s(I14
I7
I5
I36
I20161122
I0
tp76
I140941
s(I14
I7
I6
I74
I20161122
I0
tp77
I141085
s(I14
I5
I3
I79
I20161115
I0
tp78
I140680
s(I14
I5
I4
I49
I20161115
I0
tp79
I141388
s(I14
I5
I2
I67
I20161115
I0
tp80
I140570
s(I14
I5
I3
I36
I20161115
I0
tp81
I140637
s(I14
I6
I2
I66
I20161121
I0
tp82
I142217
s(I14
I6
I3
I12
I20161121
I0
tp83
I142264
s(I14
I5
I2
I94
I20161115
I0
tp84
I140597
s(I14
I6
I5
I56
I20161121
I0
tp85
I141700
s(I14
I6
I4
I30
I20161121
I0
tp86
I142390
s(I14
I5
I7
I39
I20161115
I0
tp87
I140740
s(I14
I6
I7
I10
I20161121
I0
tp88
I141854
s(I14
I6
I2
I30
I20161121
I0
tp89
I142181
s(I14
I7
I2
I56
I20161122
I0
tp90
I140154
s(I14
I6
I7
I77
I20161121
I0
tp91
I141921
s(I14
I6
I7
I58
I20161121
I0
tp92
I141902
s(I14
I7
I3
I60
I20161122
I0
tp93
I140261
s(I14
I7
I2
I11
I20161122
I0
tp94
I140109
s(I14
I6
I4
I23
I20161121
I0
tp95
I142383
s(I14
I7
I8
I21
I20161122
I0
tp96
I141247
s(I14
I5
I2
I23
I20161115
I0
tp97
I140526
s(I14
I7
I3
I81
I20161122
I0
tp98
I140282
s(I14
I6
I3
I75
I20161121
I0
tp99
I142327
s(I14
I5
I1
I3
I20161115
I0
tp100
I140408
s(I14
I7
I5
I11
I20161122
I0
tp101
I140916
s(I14
I6
I4
I85
I20161121
I0
tp102
I142445
s(I14
I5
I5
I63
I20161115
I0
tp103
I141503
s(I14
I5
I5
I97
I20161115
I0
tp104
I141537
s(I14
I5
I6
I27
I20161115
I0
tp105
I141568
s(I14
I7
I3
I33
I20161122
I0
tp106
I140234
s(I14
I7
I2
I14
I20161122
I0
tp107
I140112
s(I14
I5
I5
I11
I20161115
I0
tp108
I141451
s(I14
I5
I2
I65
I20161115
I0
tp109
I140568
s(I14
I5
I8
I48
I20161115
I0
tp110
I140850
s(I14
I5
I7
I72
I20161115
I0
tp111
I140773
s(I14
I5
I8
I40
I20161115
I0
tp112
I140842
s(I14
I6
I8
I34
I20161121
I0
tp113
I141982
s(I14
I5
I6
I74
I20161115
I0
tp114
I141615
s(I14
I5
I7
I2
I20161115
I0
tp115
I140703
s(I14
I5
I7
I65
I20161115
I0
tp116
I140766
s(I14
I6
I6
I81
I20161121
I0
tp117
I141824
s(I14
I5
I4
I61
I20161115
I0
tp118
I141400
s(I14
I7
I3
I92
I20161122
I0
tp119
I140293
s(I14
I7
I2
I43
I20161122
I0
tp120
I140141
s(I14
I7
I5
I30
I20161122
I0
tp121
I140935
s(I14
I7
I8
I54
I20161122
I0
tp122
I141280
s(I14
I7
I4
I69
I20161122
I0
tp123
I140371
s(I14
I6
I5
I41
I20161121
I0
tp124
I141685
s(I14
I5
I3
I81
I20161115
I0
tp125
I140682
s(I14
I7
I1
I71
I20161122
I0
tp126
I140070
s(I14
I5
I1
I56
I20161115
I0
tp127
I140461
s(I14
I7
I4
I53
I20161122
I0
tp128
I140355
s(I14
I6
I6
I5
I20161121
I0
tp129
I141748
s(I14
I6
I2
I90
I20161121
I0
tp130
I142241
s(I14
I6
I5
I32
I20161121
I0
tp131
I141676
s(I14
I6
I3
I47
I20161121
I0
tp132
I142299
s(I14
I6
I8
I92
I20161121
I0
tp133
I142040
s(I14
I7
I7
I9
I20161122
I0
tp134
I141131
s(I14
I6
I6
I71
I20161121
I0
tp135
I141814
s(I14
I6
I2
I28
I20161121
I0
tp136
I142179
s(I14
I7
I8
I81
I20161122
I0
tp137
I141307
s(I14
I7
I5
I52
I20161122
I0
tp138
I140957
s(I14
I6
I4
I48
I20161121
I0
tp139
I142408
s(I14
I6
I8
I24
I20161121
I0
tp140
I141972
s(I14
I6
I4
I7
I20161121
I0
tp141
I142367
s(I14
I5
I4
I55
I20161115
I0
tp142
I141394
s(I14
I6
I3
I38
I20161121
I0
tp143
I142290
s(I14
I7
I2
I61
I20161122
I0
tp144
I140159
s(I14
I7
I8
I29
I20161122
I0
tp145
I141255
s(I14
I6
I5
I22
I20161121
I0
tp146
I141666
s(I14
I6
I7
I99
I20161121
I0
tp147
I141943
s(I14
I6
I6
I98
I20161121
I0
tp148
I141841
s(I14
I7
I3
I15
I20161122
I0
tp149
I140216
s(I14
I6
I2
I46
I20161121
I0
tp150
I142197
s(I14
I7
I2
I72
I20161122
I0
tp151
I140170
s(I14
I7
I5
I57
I20161122
I0
tp152
I140962
s(I14
I5
I4
I6
I20161115
I0
tp153
I141345
s(I14
I7
I4
I18
I20161122
I0
tp154
I140320
s(I14
I6
I5
I84
I20161121
I0
tp155
I141728
s(I14
I7
I3
I83
I20161122
I0
tp156
I140284
s(I14
I7
I5
I9
I20161122
I0
tp157
I140914
s(I14
I5
I4
I35
I20161115
I0
tp158
I141374
s(I14
I7
I4
I86
I20161122
I0
tp159
I140388
s(I14
I6
I7
I102
I20161121
I0
tp160
I141946
s(I14
I6
I1
I51
I20161121
I0
tp161
I142100
s(I14
I6
I6
I48
I20161121
I0
tp162
I141791
s(I14
I7
I1
I8
I20161122
I0
tp163
I140007
s(I14
I7
I2
I30
I20161122
I0
tp164
I140128
s(I14
I6
I6
I66
I20161121
I0
tp165
I141809
s(I14
I6
I4
I22
I20161121
I0
tp166
I142382
s(I14
I5
I5
I37
I20161115
I0
tp167
I141477
s(I14
I5
I6
I5
I20161115
I0
tp168
I141546
s(I14
I5
I6
I59
I20161115
I0
tp169
I141600
s(I14
I7
I1
I56
I20161122
I0
tp170
I140055
s(I14
I5
I5
I71
I20161115
I0
tp171
I141511
s(I14
I7
I2
I51
I20161122
I0
tp172
I140149
s(I14
I7
I2
I90
I20161122
I0
tp173
I140188
s(I14
I7
I5
I39
I20161122
I0
tp174
I140944
s(I14
I7
I4
I31
I20161122
I0
tp175
I140333
s(I14
I6
I4
I84
I20161121
I0
tp176
I142444
s(I14
I5
I2
I5
I20161115
I0
tp177
I140508
s(I14
I7
I7
I70
I20161122
I0
tp178
I141192
s(I14
I6
I6
I34
I20161121
I0
tp179
I141777
s(I14
I5
I2
I97
I20161115
I0
tp180
I140600
s(I14
I6
I1
I86
I20161121
I0
tp181
I142135
s(I14
I5
I2
I29
I20161115
I0
tp182
I140532
s(I14
I7
I7
I54
I20161122
I0
tp183
I141176
s(I14
I5
I2
I60
I20161115
I0
tp184
I140563
s(I14
I6
I1
I21
I20161121
I0
tp185
I142070
s(I14
I6
I3
I67
I20161121
I0
tp186
I142319
s(I14
I5
I7
I5
I20161115
I0
tp187
I140706
s(I14
I7
I1
I40
I20161122
I0
tp188
I140039
s(I14
I6
I6
I43
I20161121
I0
tp189
I141786
s(I14
I6
I1
I102
I20161121
I0
tp190
I142151
s(I14
I6
I5
I7
I20161121
I0
tp191
I141651
s(I14
I6
I7
I70
I20161121
I0
tp192
I141914
s(I14
I5
I4
I29
I20161115
I0
tp193
I141368
s(I14
I6
I1
I100
I20161121
I0
tp194
I142149
s(I14
I7
I8
I103
I20161122
I0
tp195
I141329
s(I14
I6
I3
I29
I20161121
I0
tp196
I142281
s(I14
I5
I3
I83
I20161115
I0
tp197
I140684
s(I14
I7
I5
I106
I20161122
I0
tp198
I141011
s(I14
I5
I8
I28
I20161115
I0
tp199
I140830
s(I14
I6
I5
I69
I20161121
I0
tp200
I141713
s(I14
I7
I8
I87
I20161122
I0
tp201
I141313
s(I14
I7
I5
I58
I20161122
I0
tp202
I140963
s(I14
I6
I8
I42
I20161121
I0
tp203
I141990
s(I14
I7
I3
I23
I20161122
I0
tp204
I140224
s(I14
I5
I6
I2
I20161115
I0
tp205
I141543
s(I14
I7
I1
I27
I20161122
I0
tp206
I140026
s(I14
I6
I2
I38
I20161121
I0
tp207
I142189
s(I14
I5
I5
I73
I20161115
I0
tp208
I141513
s(I14
I7
I5
I71
I20161122
I0
tp209
I140976
s(I14
I7
I4
I25
I20161122
I0
tp210
I140327
s(I14
I7
I4
I32
I20161122
I0
tp211
I140334
s(I14
I5
I6
I99
I20161115
I0
tp212
I141640
s(I14
I7
I7
I101
I20161122
I0
tp213
I141223
s(I14
I7
I8
I13
I20161122
I0
tp214
I141239
s(I14
I7
I4
I16
I20161122
I0
tp215
I140318
s(I14
I6
I5
I33
I20161121
I0
tp216
I141677
s(I14
I5
I8
I82
I20161115
I0
tp217
I140884
s(I14
I7
I7
I85
I20161122
I0
tp218
I141207
s(I14
I5
I8
I74
I20161115
I0
tp219
I140876
s(I14
I6
I2
I56
I20161121
I0
tp220
I142207
s(I14
I6
I5
I66
I20161121
I0
tp221
I141710
s(I14
I5
I6
I31
I20161115
I0
tp222
I141572
s(I14
I5
I4
I4
I20161115
I0
tp223
I141343
s(I14
I5
I7
I57
I20161115
I0
tp224
I140758
s(I14
I6
I7
I57
I20161121
I0
tp225
I141901
s(I14
I7
I3
I99
I20161122
I0
tp226
I140300
s(I14
I7
I2
I25
I20161122
I0
tp227
I140123
s(I14
I5
I4
I28
I20161115
I0
tp228
I141367
s(I14
I5
I4
I90
I20161115
I0
tp229
I141429
s(I14
I7
I4
I70
I20161122
I0
tp230
I140372
s(I14
I7
I7
I2
I20161122
I0
tp231
I141124
s(I14
I6
I2
I4
I20161121
I0
tp232
I142155
s(I14
I7
I8
I112
I20161122
I0
tp233
I141338
s(I14
I5
I4
I3
I20161115
I0
tp234
I141342
s(I14
I7
I5
I60
I20161122
I0
tp235
I140965
s(I14
I7
I5
I85
I20161122
I0
tp236
I140990
s(I14
I5
I4
I27
I20161115
I0
tp237
I141366
s(I14
I7
I6
I87
I20161122
I0
tp238
I141098
s(I14
I6
I6
I29
I20161121
I0
tp239
I141772
s(I14
I6
I7
I2
I20161121
I0
tp240
I141846
s(I14
I6
I6
I100
I20161121
I0
tp241
I141843
s(I14
I5
I8
I27
I20161115
I0
tp242
I140829
s(I14
I5
I1
I46
I20161115
I0
tp243
I140451
s(I14
I5
I6
I37
I20161115
I0
tp244
I141578
s(I14
I6
I7
I50
I20161121
I0
tp245
I141894
s(I14
I6
I6
I20
I20161121
I0
tp246
I141763
s(I14
I7
I4
I102
I20161122
I0
tp247
I140404
s(I14
I7
I3
I68
I20161122
I0
tp248
I140269
s(I14
I5
I6
I13
I20161115
I0
tp249
I141554
s(I14
I7
I8
I30
I20161122
I0
tp250
I141256
s(I14
I7
I1
I53
I20161122
I0
tp251
I140052
s(I14
I5
I6
I84
I20161115
I0
tp252
I141625
s(I14
I5
I2
I61
I20161115
I0
tp253
I140564
s(I14
I6
I1
I58
I20161121
I0
tp254
I142107
s(I14
I5
I2
I22
I20161115
I0
tp255
I140525
s(I14
I5
I2
I92
I20161115
I0
tp256
I140595
s(I14
I5
I3
I58
I20161115
I0
tp257
I140659
s(I14
I7
I1
I16
I20161122
I0
tp258
I140015
s(I14
I7
I2
I22
I20161122
I0
tp259
I140120
s(I14
I5
I2
I52
I20161115
I0
tp260
I140555
s(I14
I6
I3
I55
I20161121
I0
tp261
I142307
s(I14
I7
I5
I95
I20161122
I0
tp262
I141000
s(I14
I5
I7
I29
I20161115
I0
tp263
I140730
s(I14
I7
I7
I17
I20161122
I0
tp264
I141139
s(I14
I6
I6
I95
I20161121
I0
tp265
I141838
s(I14
I7
I7
I59
I20161122
I0
tp266
I141181
s(I14
I6
I4
I47
I20161121
I0
tp267
I142407
s(I14
I6
I6
I90
I20161121
I0
tp268
I141833
s(I14
I6
I6
I38
I20161121
I0
tp269
I141781
s(I14
I5
I4
I96
I20161115
I0
tp270
I141435
s(I14
I5
I8
I17
I20161115
I0
tp271
I140819
s(I14
I7
I8
I3
I20161122
I0
tp272
I141229
s(I14
I5
I5
I66
I20161115
I0
tp273
I141506
s(I14
I6
I8
I65
I20161121
I0
tp274
I142013
s(I14
I7
I1
I74
I20161122
I0
tp275
I140073
s(I14
I5
I5
I8
I20161115
I0
tp276
I141448
s(I14
I6
I1
I28
I20161121
I0
tp277
I142077
s(I14
I7
I5
I22
I20161122
I0
tp278
I140927
s(I14
I6
I3
I90
I20161121
I0
tp279
I142342
s(I14
I6
I4
I83
I20161121
I0
tp280
I142443
s(I14
I7
I4
I77
I20161122
I0
tp281
I140379
s(I14
I7
I6
I11
I20161122
I0
tp282
I141022
s(I14
I6
I8
I7
I20161121
I0
tp283
I141955
s(I14
I5
I1
I82
I20161115
I0
tp284
I140487
s(I14
I7
I5
I82
I20161122
I0
tp285
I140987
s(I14
I7
I4
I61
I20161122
I0
tp286
I140363
s(I14
I5
I2
I71
I20161115
I0
tp287
I140574
s(I14
I7
I7
I4
I20161122
I0
tp288
I141126
s(I14
I6
I5
I93
I20161121
I0
tp289
I141737
s(I14
I7
I6
I79
I20161122
I0
tp290
I141090
s(I14
I5
I2
I95
I20161115
I0
tp291
I140598
s(I14
I5
I8
I42
I20161115
I0
tp292
I140844
s(I14
I6
I8
I82
I20161121
I0
tp293
I142030
s(I14
I5
I1
I91
I20161115
I0
tp294
I140496
s(I14
I5
I7
I38
I20161115
I0
tp295
I140739
s(I14
I6
I3
I68
I20161121
I0
tp296
I142320
s(I14
I5
I6
I63
I20161115
I0
tp297
I141604
s(I14
I7
I7
I49
I20161122
I0
tp298
I141171
s(I14
I5
I7
I19
I20161115
I0
tp299
I140720
s(I14
I6
I8
I83
I20161121
I0
tp300
I142031
s(I14
I5
I4
I88
I20161115
I0
tp301
I141427
s(I14
I5
I6
I39
I20161115
I0
tp302
I141580
s(I14
I6
I7
I101
I20161121
I0
tp303
I141945
s(I14
I6
I1
I71
I20161121
I0
tp304
I142120
s(I14
I7
I4
I55
I20161122
I0
tp305
I140357
s(I14
I6
I8
I99
I20161121
I0
tp306
I142047
s(I14
I6
I5
I67
I20161121
I0
tp307
I141711
s(I14
I7
I2
I69
I20161122
I0
tp308
I140167
s(I14
I7
I8
I44
I20161122
I0
tp309
I141270
s(I14
I7
I7
I46
I20161122
I0
tp310
I141168
s(I14
I6
I6
I58
I20161121
I0
tp311
I141801
s(I14
I6
I8
I33
I20161121
I0
tp312
I141981
s(I14
I7
I1
I42
I20161122
I0
tp313
I140041
s(I14
I7
I5
I49
I20161122
I0
tp314
I140954
s(I14
I5
I1
I23
I20161115
I0
tp315
I140428
s(I14
I7
I3
I9
I20161122
I0
tp316
I140210
s(I14
I7
I6
I40
I20161122
I0
tp317
I141051
s(I14
I7
I5
I1
I20161122
I0
tp318
I140906
s(I14
I7
I4
I94
I20161122
I0
tp319
I140396
s(I14
I7
I7
I35
I20161122
I0
tp320
I141157
s(I14
I7
I6
I24
I20161122
I0
tp321
I141035
s(I14
I6
I7
I94
I20161121
I0
tp322
I141938
s(I14
I7
I8
I79
I20161122
I0
tp323
I141305
s(I14
I5
I6
I86
I20161115
I0
tp324
I141627
s(I14
I5
I5
I88
I20161115
I0
tp325
I141528
s(I14
I5
I6
I62
I20161115
I0
tp326
I141603
s(I14
I5
I5
I64
I20161115
I0
tp327
I141504
s(I14
I5
I4
I33
I20161115
I0
tp328
I141372
s(I14
I5
I2
I54
I20161115
I0
tp329
I140557
s(I14
I5
I3
I20
I20161115
I0
tp330
I140621
s(I14
I6
I4
I5
I20161121
I0
tp331
I142365
s(I14
I7
I2
I98
I20161122
I0
tp332
I140196
s(I14
I5
I6
I57
I20161115
I0
tp333
I141598
s(I14
I6
I5
I79
I20161121
I0
tp334
I141723
s(I14
I7
I4
I8
I20161122
I0
tp335
I140310
s(I14
I5
I3
I77
I20161115
I0
tp336
I140678
s(I14
I7
I7
I78
I20161122
I0
tp337
I141200
s(I14
I7
I6
I37
I20161122
I0
tp338
I141048
s(I14
I7
I1
I13
I20161122
I0
tp339
I140012
s(I14
I7
I6
I21
I20161122
I0
tp340
I141032
s(I14
I7
I1
I61
I20161122
I0
tp341
I140060
s(I14
I6
I3
I76
I20161121
I0
tp342
I142328
s(I14
I6
I4
I75
I20161121
I0
tp343
I142435
s(I14
I7
I5
I98
I20161122
I0
tp344
I141003
s(I14
I6
I3
I14
I20161121
I0
tp345
I142266
s(I14
I7
I7
I52
I20161122
I0
tp346
I141174
s(I14
I6
I5
I62
I20161121
I0
tp347
I141706
s(I14
I6
I7
I19
I20161121
I0
tp348
I141863
s(I14
I6
I1
I48
I20161121
I0
tp349
I142097
s(I14
I7
I8
I43
I20161122
I0
tp350
I141269
s(I14
I5
I2
I89
I20161115
I0
tp351
I140592
s(I14
I5
I1
I89
I20161115
I0
tp352
I140494
s(I14
I5
I2
I19
I20161115
I0
tp353
I140522
s(I14
I5
I2
I49
I20161115
I0
tp354
I140552
s(I14
I6
I8
I57
I20161121
I0
tp355
I142005
s(I14
I6
I7
I79
I20161121
I0
tp356
I141923
s(I14
I6
I2
I77
I20161121
I0
tp357
I142228
s(I14
I7
I3
I18
I20161122
I0
tp358
I140219
s(I14
I7
I4
I40
I20161122
I0
tp359
I140342
s(I14
I6
I3
I56
I20161121
I0
tp360
I142308
s(I14
I5
I4
I80
I20161115
I0
tp361
I141419
s(I14
I7
I3
I86
I20161122
I0
tp362
I140287
s(I14
I7
I7
I93
I20161122
I0
tp363
I141215
s(I14
I7
I6
I19
I20161122
I0
tp364
I141030
s(I14
I7
I6
I42
I20161122
I0
tp365
I141053
s(I14
I6
I8
I15
I20161121
I0
tp366
I141963
s(I14
I5
I8
I84
I20161115
I0
tp367
I140886
s(I14
I5
I3
I41
I20161115
I0
tp368
I140642
s(I14
I5
I3
I62
I20161115
I0
tp369
I140663
s(I14
I5
I1
I21
I20161115
I0
tp370
I140426
s(I14
I6
I4
I62
I20161121
I0
tp371
I142422
s(I14
I6
I2
I91
I20161121
I0
tp372
I142242
s(I14
I5
I5
I18
I20161115
I0
tp373
I141458
s(I14
I7
I2
I27
I20161122
I0
tp374
I140125
s(I14
I7
I7
I83
I20161122
I0
tp375
I141205
s(I14
I6
I5
I4
I20161121
I0
tp376
I141648
s(I14
I7
I1
I14
I20161122
I0
tp377
I140013
s(I14
I5
I5
I51
I20161115
I0
tp378
I141491
s(I14
I6
I1
I79
I20161121
I0
tp379
I142128
s(I14
I7
I4
I15
I20161122
I0
tp380
I140317
s(I14
I6
I4
I55
I20161121
I0
tp381
I142415
s(I14
I7
I6
I76
I20161122
I0
tp382
I141087
s(I14
I6
I5
I90
I20161121
I0
tp383
I141734
s(I14
I5
I1
I1
I20161115
I0
tp384
I140406
s(I14
I6
I1
I13
I20161121
I0
tp385
I142062
s(I14
I7
I3
I49
I20161122
I0
tp386
I140250
s(I14
I6
I1
I38
I20161121
I0
tp387
I142087
s(I14
I5
I6
I94
I20161115
I0
tp388
I141635
s(I14
I5
I5
I96
I20161115
I0
tp389
I141536
s(I14
I5
I6
I24
I20161115
I0
tp390
I141565
s(I14
I5
I4
I63
I20161115
I0
tp391
I141402
s(I14
I6
I2
I41
I20161121
I0
tp392
I142192
s(I14
I7
I3
I1
I20161122
I0
tp393
I140202
s(I14
I5
I4
I30
I20161115
I0
tp394
I141369
s(I14
I5
I4
I54
I20161115
I0
tp395
I141393
s(I14
I5
I3
I39
I20161115
I0
tp396
I140640
s(I14
I5
I2
I91
I20161115
I0
tp397
I140594
s(I14
I7
I1
I94
I20161122
I0
tp398
I140093
s(I14
I5
I3
I69
I20161115
I0
tp399
I140670
s(I14
I6
I8
I66
I20161121
I0
tp400
I142014
s(I14
I6
I1
I50
I20161121
I0
tp401
I142099
s(I14
I5
I3
I32
I20161115
I0
tp402
I140633
s(I14
I6
I1
I2
I20161121
I0
tp403
I142051
s(I14
I6
I3
I32
I20161121
I0
tp404
I142284
s(I14
I7
I2
I8
I20161122
I0
tp405
I140106
s(I14
I6
I8
I75
I20161121
I0
tp406
I142023
s(I14
I7
I8
I22
I20161122
I0
tp407
I141248
s(I14
I7
I6
I108
I20161122
I0
tp408
I141119
s(I14
I5
I2
I16
I20161115
I0
tp409
I140519
s(I14
I7
I7
I96
I20161122
I0
tp410
I141218
s(I14
I6
I8
I9
I20161121
I0
tp411
I141957
s(I14
I6
I6
I37
I20161121
I0
tp412
I141780
s(I14
I5
I2
I81
I20161115
I0
tp413
I140584
s(I14
I5
I3
I23
I20161115
I0
tp414
I140624
s(I14
I5
I2
I11
I20161115
I0
tp415
I140514
s(I14
I6
I3
I66
I20161121
I0
tp416
I142318
s(I14
I5
I4
I77
I20161115
I0
tp417
I141416
s(I14
I5
I8
I61
I20161115
I0
tp418
I140863
s(I14
I7
I7
I92
I20161122
I0
tp419
I141214
s(I14
I7
I5
I20
I20161122
I0
tp420
I140925
s(I14
I7
I6
I90
I20161122
I0
tp421
I141101
s(I14
I6
I5
I6
I20161121
I0
tp422
I141650
s(I14
I5
I2
I96
I20161115
I0
tp423
I140599
s(I14
I6
I1
I65
I20161121
I0
tp424
I142114
s(I14
I6
I2
I76
I20161121
I0
tp425
I142227
s(I14
I5
I5
I80
I20161115
I0
tp426
I141520
s(I14
I7
I7
I12
I20161122
I0
tp427
I141134
s(I14
I6
I5
I54
I20161121
I0
tp428
I141698
s(I14
I7
I6
I71
I20161122
I0
tp429
I141082
s(I14
I6
I4
I20
I20161121
I0
tp430
I142380
s(I14
I5
I2
I69
I20161115
I0
tp431
I140572
s(I14
I5
I8
I52
I20161115
I0
tp432
I140854
s(I14
I5
I7
I76
I20161115
I0
tp433
I140777
s(I14
I6
I2
I14
I20161121
I0
tp434
I142165
s(I14
I7
I2
I40
I20161122
I0
tp435
I140138
s(I14
I7
I6
I14
I20161122
I0
tp436
I141025
s(I14
I6
I4
I82
I20161121
I0
tp437
I142442
s(I14
I6
I1
I95
I20161121
I0
tp438
I142144
s(I14
I6
I2
I39
I20161121
I0
tp439
I142190
s(I14
I7
I3
I44
I20161122
I0
tp440
I140245
s(I14
I5
I5
I25
I20161115
I0
tp441
I141465
s(I14
I6
I1
I19
I20161121
I0
tp442
I142068
s(I14
I7
I4
I99
I20161122
I0
tp443
I140401
s(I14
I6
I3
I93
I20161121
I0
tp444
I142345
s(I14
I7
I2
I71
I20161122
I0
tp445
I140169
s(I14
I7
I6
I61
I20161122
I0
tp446
I141072
s(I14
I5
I2
I50
I20161115
I0
tp447
I140553
s(I14
I5
I1
I33
I20161115
I0
tp448
I140438
s(I14
I5
I2
I9
I20161115
I0
tp449
I140512
s(I14
I6
I2
I57
I20161121
I0
tp450
I142208
s(I14
I5
I1
I9
I20161115
I0
tp451
I140414
s(I14
I7
I8
I82
I20161122
I0
tp452
I141308
s(I14
I6
I3
I31
I20161121
I0
tp453
I142283
s(I14
I7
I5
I55
I20161122
I0
tp454
I140960
s(I14
I5
I8
I79
I20161115
I0
tp455
I140881
s(I14
I5
I7
I17
I20161115
I0
tp456
I140718
s(I14
I7
I1
I88
I20161122
I0
tp457
I140087
s(I14
I5
I8
I34
I20161115
I0
tp458
I140836
s(I14
I7
I3
I85
I20161122
I0
tp459
I140286
s(I14
I7
I2
I19
I20161122
I0
tp460
I140117
s(I14
I7
I7
I43
I20161122
I0
tp461
I141165
s(I14
I5
I7
I9
I20161115
I0
tp462
I140710
s(I14
I7
I5
I7
I20161122
I0
tp463
I140912
s(I14
I7
I6
I100
I20161122
I0
tp464
I141111
s(I14
I6
I8
I40
I20161121
I0
tp465
I141988
s(I14
I5
I4
I22
I20161115
I0
tp466
I141361
s(I14
I5
I3
I71
I20161115
I0
tp467
I140672
s(I14
I5
I3
I1
I20161115
I0
tp468
I140602
s(I14
I5
I3
I95
I20161115
I0
tp469
I140696
s(I14
I5
I3
I25
I20161115
I0
tp470
I140626
s(I14
I6
I4
I13
I20161121
I0
tp471
I142373
s(I14
I6
I5
I39
I20161121
I0
tp472
I141683
s(I14
I7
I3
I35
I20161122
I0
tp473
I140236
s(I14
I5
I4
I2
I20161115
I0
tp474
I141341
s(I14
I7
I8
I71
I20161122
I0
tp475
I141297
s(I14
I7
I2
I103
I20161122
I0
tp476
I140201
s(I14
I7
I6
I93
I20161122
I0
tp477
I141104
s(I14
I6
I6
I21
I20161121
I0
tp478
I141764
s(I14
I5
I1
I38
I20161115
I0
tp479
I140443
s(I14
I6
I2
I74
I20161121
I0
tp480
I142225
s(I14
I7
I1
I11
I20161122
I0
tp481
I140010
s(I14
I5
I6
I29
I20161115
I0
tp482
I141570
s(I14
I5
I1
I71
I20161115
I0
tp483
I140476
s(I14
I6
I8
I74
I20161121
I0
tp484
I142022
s(I14
I6
I5
I21
I20161121
I0
tp485
I141665
s(I14
I6
I6
I73
I20161121
I0
tp486
I141816
s(I14
I5
I6
I60
I20161115
I0
tp487
I141601
s(I14
I7
I1
I59
I20161122
I0
tp488
I140058
s(I14
I6
I2
I6
I20161121
I0
tp489
I142157
s(I14
I5
I6
I36
I20161115
I0
tp490
I141577
s(I14
I5
I5
I47
I20161115
I0
tp491
I141487
s(I14
I6
I8
I8
I20161121
I0
tp492
I141956
s(I14
I5
I2
I98
I20161115
I0
tp493
I140601
s(I14
I5
I4
I78
I20161115
I0
tp494
I141417
s(I14
I7
I8
I109
I20161122
I0
tp495
I141335
s(I14
I5
I2
I36
I20161115
I0
tp496
I140539
s(I14
I7
I5
I96
I20161122
I0
tp497
I141001
s(I14
I5
I3
I2
I20161115
I0
tp498
I140603
s(I14
I6
I2
I24
I20161121
I0
tp499
I142175
s(I14
I7
I8
I41
I20161122
I0
tp500
I141267
s(I14
I6
I5
I98
I20161121
I0
tp501
I141742
s(I14
I6
I4
I72
I20161121
I0
tp502
I142432
s(I14
I6
I7
I52
I20161121
I0
tp503
I141896
s(I14
I6
I1
I101
I20161121
I0
tp504
I142150
s(I14
I6
I2
I49
I20161121
I0
tp505
I142200
s(I14
I7
I3
I67
I20161122
I0
tp506
I140268
s(I14
I7
I8
I96
I20161122
I0
tp507
I141322
s(I14
I6
I4
I56
I20161121
I0
tp508
I142416
s(I14
I7
I4
I38
I20161122
I0
tp509
I140340
s(I14
I5
I8
I25
I20161115
I0
tp510
I140827
s(I14
I7
I8
I80
I20161122
I0
tp511
I141306
s(I14
I7
I5
I28
I20161122
I0
tp512
I140933
s(I14
I7
I6
I34
I20161122
I0
tp513
I141045
s(I14
I5
I5
I68
I20161115
I0
tp514
I141508
s(I14
I6
I4
I38
I20161121
I0
tp515
I142398
s(I14
I6
I5
I92
I20161121
I0
tp516
I141736
s(I14
I6
I7
I34
I20161121
I0
tp517
I141878
s(I14
I6
I6
I4
I20161121
I0
tp518
I141747
s(I14
I7
I2
I74
I20161122
I0
tp519
I140172
s(I14
I7
I5
I6
I20161122
I0
tp520
I140911
s(I14
I7
I8
I14
I20161122
I0
tp521
I141240
s(I14
I5
I1
I52
I20161115
I0
tp522
I140457
s(I14
I5
I7
I11
I20161115
I0
tp523
I140712
s(I14
I6
I6
I52
I20161121
I0
tp524
I141795
s(I14
I7
I3
I36
I20161122
I0
tp525
I140237
s(I14
I7
I4
I13
I20161122
I0
tp526
I140315
s(I14
I6
I2
I79
I20161121
I0
tp527
I142230
s(I14
I6
I7
I20
I20161121
I0
tp528
I141864
s(I14
I7
I1
I85
I20161122
I0
tp529
I140084
s(I14
I5
I3
I27
I20161115
I0
tp530
I140628
s(I14
I6
I3
I83
I20161121
I0
tp531
I142335
s(I14
I6
I3
I39
I20161121
I0
tp532
I142291
s(I14
I6
I5
I23
I20161121
I0
tp533
I141667
s(I14
I6
I6
I79
I20161121
I0
tp534
I141822
s(I14
I6
I7
I80
I20161121
I0
tp535
I141924
s(I14
I5
I6
I81
I20161115
I0
tp536
I141622
s(I14
I5
I7
I31
I20161115
I0
tp537
I140732
s(I14
I6
I3
I23
I20161121
I0
tp538
I142275
s(I14
I7
I5
I63
I20161122
I0
tp539
I140968
s(I14
I6
I5
I83
I20161121
I0
tp540
I141727
s(I14
I5
I4
I24
I20161115
I0
tp541
I141363
s(I14
I6
I2
I84
I20161121
I0
tp542
I142235
s(I14
I7
I8
I51
I20161122
I0
tp543
I141277
s(I14
I5
I1
I70
I20161115
I0
tp544
I140475
s(I14
I6
I2
I22
I20161121
I0
tp545
I142173
s(I14
I7
I8
I99
I20161122
I0
tp546
I141325
s(I14
I5
I1
I45
I20161115
I0
tp547
I140450
s(I14
I6
I8
I22
I20161121
I0
tp548
I141970
s(I14
I5
I6
I38
I20161115
I0
tp549
I141579
s(I14
I5
I1
I79
I20161115
I0
tp550
I140484
s(I14
I7
I3
I75
I20161122
I0
tp551
I140276
s(I14
I6
I3
I40
I20161121
I0
tp552
I142292
s(I14
I5
I6
I68
I20161115
I0
tp553
I141609
s(I14
I5
I3
I97
I20161115
I0
tp554
I140698
s(I14
I7
I4
I45
I20161122
I0
tp555
I140347
s(I14
I6
I5
I49
I20161121
I0
tp556
I141693
s(I14
I5
I3
I4
I20161115
I0
tp557
I140605
s(I14
I5
I4
I100
I20161115
I0
tp558
I141439
s(I14
I5
I2
I62
I20161115
I0
tp559
I140565
s(I14
I5
I3
I28
I20161115
I0
tp560
I140629
s(I14
I5
I3
I34
I20161115
I0
tp561
I140635
s(I14
I5
I3
I61
I20161115
I0
tp562
I140662
s(I14
I6
I4
I46
I20161121
I0
tp563
I142406
s(I14
I6
I6
I82
I20161121
I0
tp564
I141825
s(I14
I6
I7
I5
I20161121
I0
tp565
I141849
s(I14
I6
I1
I45
I20161121
I0
tp566
I142094
s(I14
I7
I2
I85
I20161122
I0
tp567
I140183
s(I14
I5
I8
I7
I20161115
I0
tp568
I140809
s(I14
I7
I4
I23
I20161122
I0
tp569
I140325
s(I14
I5
I8
I63
I20161115
I0
tp570
I140865
s(I14
I7
I7
I94
I20161122
I0
tp571
I141216
s(I14
I6
I6
I42
I20161121
I0
tp572
I141785
s(I14
I7
I2
I37
I20161122
I0
tp573
I140135
s(I14
I6
I2
I48
I20161121
I0
tp574
I142199
s(I14
I7
I8
I101
I20161122
I0
tp575
I141327
s(I14
I7
I8
I12
I20161122
I0
tp576
I141238
s(I14
I5
I8
I30
I20161115
I0
tp577
I140832
s(I14
I7
I5
I104
I20161122
I0
tp578
I141009
s(I14
I6
I4
I28
I20161121
I0
tp579
I142388
s(I14
I6
I5
I74
I20161121
I0
tp580
I141718
s(I14
I7
I7
I14
I20161122
I0
tp581
I141136
s(I14
I6
I7
I12
I20161121
I0
tp582
I141856
s(I14
I7
I1
I77
I20161122
I0
tp583
I140076
s(I14
I6
I3
I91
I20161121
I0
tp584
I142343
s(I14
I5
I5
I42
I20161115
I0
tp585
I141482
s(I14
I7
I5
I17
I20161122
I0
tp586
I140922
s(I14
I7
I4
I78
I20161122
I0
tp587
I140380
s(I14
I5
I5
I76
I20161115
I0
tp588
I141516
s(I14
I7
I6
I8
I20161122
I0
tp589
I141019
s(I14
I6
I7
I78
I20161121
I0
tp590
I141922
s(I14
I6
I3
I21
I20161121
I0
tp591
I142273
s(I14
I7
I4
I62
I20161122
I0
tp592
I140364
s(I14
I6
I6
I88
I20161121
I0
tp593
I141831
s(I14
I6
I3
I69
I20161121
I0
tp594
I142321
s(I14
I7
I5
I34
I20161122
I0
tp595
I140939
s(I14
I5
I8
I66
I20161115
I0
tp596
I140868
s(I14
I5
I6
I48
I20161115
I0
tp597
I141589
s(I14
I5
I7
I30
I20161115
I0
tp598
I140731
s(I14
I7
I1
I32
I20161122
I0
tp599
I140031
s(I14
I6
I4
I15
I20161121
I0
tp600
I142375
s(I14
I7
I4
I56
I20161122
I0
tp601
I140358
s(I14
I5
I7
I63
I20161115
I0
tp602
I140764
s(I14
I7
I2
I66
I20161122
I0
tp603
I140164
s(I14
I7
I8
I6
I20161122
I0
tp604
I141232
s(I14
I5
I7
I23
I20161115
I0
tp605
I140724
s(I14
I7
I7
I45
I20161122
I0
tp606
I141167
s(I14
I5
I5
I39
I20161115
I0
tp607
I141479
s(I14
I7
I1
I45
I20161122
I0
tp608
I140044
s(I14
I6
I1
I78
I20161121
I0
tp609
I142127
s(I14
I6
I2
I15
I20161121
I0
tp610
I142166
s(I14
I7
I1
I90
I20161122
I0
tp611
I140089
s(I14
I5
I1
I77
I20161115
I0
tp612
I140482
s(I14
I5
I1
I11
I20161115
I0
tp613
I140416
s(I14
I6
I5
I47
I20161121
I0
tp614
I141691
s(I14
I5
I1
I85
I20161115
I0
tp615
I140490
s(I14
I5
I1
I19
I20161115
I0
tp616
I140424
s(I14
I7
I8
I72
I20161122
I0
tp617
I141298
s(I14
I7
I5
I66
I20161122
I0
tp618
I140971
s(I14
I7
I7
I20
I20161122
I0
tp619
I141142
s(I14
I7
I6
I95
I20161122
I0
tp620
I141106
s(I14
I6
I7
I51
I20161121
I0
tp621
I141895
s(I14
I7
I1
I3
I20161122
I0
tp622
I140002
s(I14
I6
I2
I93
I20161121
I0
tp623
I142244
s(I14
I5
I3
I60
I20161115
I0
tp624
I140661
s(I14
I6
I6
I65
I20161121
I0
tp625
I141808
s(I14
I5
I8
I32
I20161115
I0
tp626
I140834
s(I14
I5
I3
I93
I20161115
I0
tp627
I140694
s(I14
I7
I1
I51
I20161122
I0
tp628
I140050
s(I14
I5
I6
I82
I20161115
I0
tp629
I141623
s(I14
I5
I7
I56
I20161115
I0
tp630
I140757
s(I14
I5
I3
I53
I20161115
I0
tp631
I140654
s(I14
I5
I6
I58
I20161115
I0
tp632
I141599
s(I14
I6
I4
I66
I20161121
I0
tp633
I142426
s(I14
I7
I7
I77
I20161122
I0
tp634
I141199
s(I14
I6
I8
I31
I20161121
I0
tp635
I141979
s(I14
I7
I4
I75
I20161122
I0
tp636
I140377
s(I14
I5
I8
I31
I20161115
I0
tp637
I140833
s(I14
I6
I8
I47
I20161121
I0
tp638
I141995
s(I14
I6
I3
I104
I20161121
I0
tp639
I142356
s(I14
I5
I1
I8
I20161115
I0
tp640
I140413
s(I14
I5
I5
I74
I20161115
I0
tp641
I141514
s(I14
I5
I6
I14
I20161115
I0
tp642
I141555
s(I14
I7
I8
I104
I20161122
I0
tp643
I141330
s(I14
I5
I5
I16
I20161115
I0
tp644
I141456
s(I14
I7
I7
I51
I20161122
I0
tp645
I141173
s(I14
I7
I5
I77
I20161122
I0
tp646
I140982
s(I14
I6
I6
I50
I20161121
I0
tp647
I141793
s(I14
I7
I6
I44
I20161122
I0
tp648
I141055
s(I14
I7
I8
I27
I20161122
I0
tp649
I141253
s(I14
I5
I2
I87
I20161115
I0
tp650
I140590
s(I14
I7
I3
I17
I20161122
I0
tp651
I140218
s(I14
I5
I1
I67
I20161115
I0
tp652
I140472
s(I14
I6
I4
I21
I20161121
I0
tp653
I142381
s(I14
I5
I7
I62
I20161115
I0
tp654
I140763
s(I14
I6
I6
I44
I20161121
I0
tp655
I141787
s(I14
I6
I7
I86
I20161121
I0
tp656
I141930
s(I14
I6
I1
I84
I20161121
I0
tp657
I142133
s(I14
I7
I3
I38
I20161122
I0
tp658
I140239
s(I14
I7
I4
I92
I20161122
I0
tp659
I140394
s(I14
I7
I7
I28
I20161122
I0
tp660
I141150
s(I14
I5
I8
I54
I20161115
I0
tp661
I140856
s(I14
I6
I8
I98
I20161121
I0
tp662
I142046
s(I14
I5
I7
I66
I20161115
I0
tp663
I140767
s(I14
I6
I1
I18
I20161121
I0
tp664
I142067
s(I14
I5
I5
I41
I20161115
I0
tp665
I141481
s(I14
I6
I3
I92
I20161121
I0
tp666
I142344
s(I14
I7
I2
I24
I20161122
I0
tp667
I140122
s(I14
I5
I5
I17
I20161115
I0
tp668
I141457
s(I14
I7
I1
I1
I20161122
I0
tp669
I140000
s(I14
I6
I1
I98
I20161121
I0
tp670
I142147
s(I14
I5
I1
I17
I20161115
I0
tp671
I140422
s(I14
I6
I5
I91
I20161121
I0
tp672
I141735
s(I14
I6
I5
I52
I20161121
I0
tp673
I141696
s(I14
I6
I7
I29
I20161121
I0
tp674
I141873
s(I14
I7
I8
I59
I20161122
I0
tp675
I141285
s(I14
I7
I7
I64
I20161122
I0
tp676
I141186
s(I14
I6
I8
I41
I20161121
I0
tp677
I141989
s(I14
I5
I6
I83
I20161115
I0
tp678
I141624
s(I14
I7
I1
I50
I20161122
I0
tp679
I140049
s(I14
I6
I7
I95
I20161121
I0
tp680
I141939
s(I14
I7
I1
I48
I20161122
I0
tp681
I140047
s(I14
I6
I4
I45
I20161121
I0
tp682
I142405
s(I14
I7
I1
I98
I20161122
I0
tp683
I140097
s(I14
I5
I1
I97
I20161115
I0
tp684
I140502
s(I14
I5
I7
I88
I20161115
I0
tp685
I140789
s(I14
I5
I6
I90
I20161115
I0
tp686
I141631
s(I14
I6
I2
I92
I20161121
I0
tp687
I142243
s(I14
I7
I3
I70
I20161122
I0
tp688
I140271
s(I14
I7
I7
I60
I20161122
I0
tp689
I141182
s(I14
I7
I6
I58
I20161122
I0
tp690
I141069
s(I14
I6
I5
I38
I20161121
I0
tp691
I141682
s(I14
I6
I7
I11
I20161121
I0
tp692
I141855
s(I14
I5
I4
I45
I20161115
I0
tp693
I141384
s(I14
I7
I6
I39
I20161122
I0
tp694
I141050
s(I14
I6
I7
I59
I20161121
I0
tp695
I141903
s(I14
I5
I3
I35
I20161115
I0
tp696
I140636
s(I14
I5
I1
I14
I20161115
I0
tp697
I140419
s(I14
I5
I3
I65
I20161115
I0
tp698
I140666
s(I14
I5
I1
I22
I20161115
I0
tp699
I140427
s(I14
I5
I1
I40
I20161115
I0
tp700
I140445
s(I14
I6
I5
I20
I20161121
I0
tp701
I141664
s(I14
I6
I2
I7
I20161121
I0
tp702
I142158
s(I14
I7
I3
I12
I20161122
I0
tp703
I140213
s(I14
I6
I1
I35
I20161121
I0
tp704
I142084
s(I14
I7
I2
I87
I20161122
I0
tp705
I140185
s(I14
I6
I2
I87
I20161121
I0
tp706
I142238
s(I14
I7
I8
I52
I20161122
I0
tp707
I141278
s(I14
I7
I4
I67
I20161122
I0
tp708
I140369
s(I14
I7
I2
I39
I20161122
I0
tp709
I140137
s(I14
I7
I6
I29
I20161122
I0
tp710
I141040
s(I14
I7
I1
I69
I20161122
I0
tp711
I140068
s(I14
I5
I2
I20
I20161115
I0
tp712
I140523
s(I14
I6
I2
I25
I20161121
I0
tp713
I142176
s(I14
I6
I1
I49
I20161121
I0
tp714
I142098
s(I14
I7
I3
I101
I20161122
I0
tp715
I140302
s(I14
I7
I5
I23
I20161122
I0
tp716
I140928
s(I14
I6
I4
I73
I20161121
I0
tp717
I142433
s(I14
I6
I6
I23
I20161121
I0
tp718
I141766
s(I14
I6
I8
I56
I20161121
I0
tp719
I142004
s(I14
I6
I4
I87
I20161121
I0
tp720
I142447
s(I14
I7
I3
I53
I20161122
I0
tp721
I140254
s(I14
I5
I4
I20
I20161115
I0
tp722
I141359
s(I14
I7
I7
I11
I20161122
I0
tp723
I141133
s(I14
I7
I6
I68
I20161122
I0
tp724
I141079
s(I14
I6
I8
I72
I20161121
I0
tp725
I142020
s(I14
I6
I1
I56
I20161121
I0
tp726
I142105
s(I14
I5
I8
I49
I20161115
I0
tp727
I140851
s(I14
I5
I8
I44
I20161115
I0
tp728
I140846
s(I14
I5
I7
I36
I20161115
I0
tp729
I140737
s(I14
I5
I7
I98
I20161115
I0
tp730
I140799
s(I14
I6
I8
I14
I20161121
I0
tp731
I141962
s(I14
I7
I3
I10
I20161122
I0
tp732
I140211
s(I14
I5
I7
I90
I20161115
I0
tp733
I140791
s(I14
I6
I3
I48
I20161121
I0
tp734
I142300
s(I14
I5
I5
I49
I20161115
I0
tp735
I141489
s(I14
I5
I5
I20
I20161115
I0
tp736
I141460
s(I14
I7
I3
I3
I20161122
I0
tp737
I140204
s(I14
I7
I4
I100
I20161122
I0
tp738
I140402
s(I14
I7
I2
I68
I20161122
I0
tp739
I140166
s(I14
I7
I6
I50
I20161122
I0
tp740
I141061
s(I14
I6
I8
I55
I20161121
I0
tp741
I142003
s(I14
I6
I6
I53
I20161121
I0
tp742
I141796
s(I14
I5
I1
I36
I20161115
I0
tp743
I140441
s(I14
I5
I2
I10
I20161115
I0
tp744
I140513
s(I14
I5
I8
I101
I20161115
I0
tp745
I140903
s(I14
I5
I1
I12
I20161115
I0
tp746
I140417
s(I14
I5
I1
I96
I20161115
I0
tp747
I140501
s(I14
I5
I2
I40
I20161115
I0
tp748
I140543
s(I14
I6
I4
I54
I20161121
I0
tp749
I142414
s(I14
I5
I6
I7
I20161115
I0
tp750
I141548
s(I14
I6
I3
I84
I20161121
I0
tp751
I142336
s(I14
I6
I5
I28
I20161121
I0
tp752
I141672
s(I14
I7
I1
I22
I20161122
I0
tp753
I140021
s(I14
I6
I3
I15
I20161121
I0
tp754
I142267
s(I14
I5
I8
I51
I20161115
I0
tp755
I140853
s(I14
I6
I3
I22
I20161121
I0
tp756
I142274
s(I14
I5
I3
I74
I20161115
I0
tp757
I140675
s(I14
I6
I2
I40
I20161121
I0
tp758
I142191
s(I14
I7
I8
I77
I20161122
I0
tp759
I141303
s(I14
I7
I7
I104
I20161122
I0
tp760
I141226
s(I14
I7
I5
I64
I20161122
I0
tp761
I140969
s(I14
I5
I8
I21
I20161115
I0
tp762
I140823
s(I14
I6
I5
I82
I20161121
I0
tp763
I141726
s(I14
I6
I7
I36
I20161121
I0
tp764
I141880
s(I14
I5
I7
I99
I20161115
I0
tp765
I140800
s(I14
I5
I4
I75
I20161115
I0
tp766
I141414
s(I14
I7
I7
I88
I20161122
I0
tp767
I141210
s(I14
I6
I8
I81
I20161121
I0
tp768
I142029
s(I14
I6
I5
I2
I20161121
I0
tp769
I141646
s(I14
I5
I3
I67
I20161115
I0
tp770
I140668
s(I14
I6
I7
I103
I20161121
I0
tp771
I141947
s(I14
I6
I1
I69
I20161121
I0
tp772
I142118
s(I14
I6
I2
I17
I20161121
I0
tp773
I142168
s(I14
I5
I3
I91
I20161115
I0
tp774
I140692
s(I14
I5
I1
I54
I20161115
I0
tp775
I140459
s(I14
I6
I4
I61
I20161121
I0
tp776
I142421
s(I14
I7
I2
I100
I20161122
I0
tp777
I140198
s(I14
I7
I6
I82
I20161122
I0
tp778
I141093
s(I14
I6
I8
I23
I20161121
I0
tp779
I141971
s(I14
I7
I4
I6
I20161122
I0
tp780
I140308
s(I14
I7
I3
I96
I20161122
I0
tp781
I140297
s(I14
I7
I6
I13
I20161122
I0
tp782
I141024
s(I14
I6
I2
I35
I20161121
I0
tp783
I142186
s(I14
I7
I6
I65
I20161122
I0
tp784
I141076
s(I14
I6
I4
I90
I20161121
I0
tp785
I142450
s(I14
I6
I1
I87
I20161121
I0
tp786
I142136
s(I14
I7
I2
I3
I20161122
I0
tp787
I140101
s(I14
I7
I2
I42
I20161122
I0
tp788
I140140
s(I14
I7
I8
I110
I20161122
I0
tp789
I141336
s(I14
I7
I5
I99
I20161122
I0
tp790
I141004
s(I14
I5
I6
I47
I20161115
I0
tp791
I141588
s(I14
I7
I3
I4
I20161122
I0
tp792
I140205
s(I14
I7
I8
I94
I20161122
I0
tp793
I141320
s(I14
I7
I2
I79
I20161122
I0
tp794
I140177
s(I14
I7
I7
I103
I20161122
I0
tp795
I141225
s(I14
I5
I4
I12
I20161115
I0
tp796
I141351
s(I14
I6
I8
I20
I20161121
I0
tp797
I141968
s(I14
I5
I3
I68
I20161115
I0
tp798
I140669
s(I14
I6
I3
I54
I20161121
I0
tp799
I142306
s(I14
I6
I3
I7
I20161121
I0
tp800
I142259
s(I14
I5
I7
I68
I20161115
I0
tp801
I140769
s(I14
I6
I8
I100
I20161121
I0
tp802
I142048
s(I14
I6
I5
I55
I20161121
I0
tp803
I141699
s(I14
I5
I7
I60
I20161115
I0
tp804
I140761
s(I14
I6
I2
I100
I20161121
I0
tp805
I142251
s(I14
I7
I3
I94
I20161122
I0
tp806
I140295
s(I14
I7
I5
I31
I20161122
I0
tp807
I140936
s(I14
I6
I4
I65
I20161121
I0
tp808
I142425
s(I14
I5
I7
I93
I20161115
I0
tp809
I140794
s(I14
I6
I6
I31
I20161121
I0
tp810
I141774
s(I14
I5
I5
I52
I20161115
I0
tp811
I141492
s(I14
I5
I4
I76
I20161115
I0
tp812
I141415
s(I14
I7
I3
I46
I20161122
I0
tp813
I140247
s(I14
I7
I2
I21
I20161122
I0
tp814
I140119
s(I14
I6
I3
I49
I20161121
I0
tp815
I142301
s(I14
I7
I6
I97
I20161122
I0
tp816
I141108
s(I14
I5
I1
I2
I20161115
I0
tp817
I140407
s(I14
I6
I6
I89
I20161121
I0
tp818
I141832
s(I14
I5
I2
I42
I20161115
I0
tp819
I140545
s(I14
I5
I1
I44
I20161115
I0
tp820
I140449
s(I14
I7
I2
I32
I20161122
I0
tp821
I140130
s(I14
I5
I2
I2
I20161115
I0
tp822
I140505
s(I14
I6
I5
I12
I20161121
I0
tp823
I141656
s(I14
I6
I8
I54
I20161121
I0
tp824
I142002
s(I14
I7
I1
I95
I20161122
I0
tp825
I140094
s(I14
I7
I3
I43
I20161122
I0
tp826
I140244
s(I14
I6
I3
I8
I20161121
I0
tp827
I142260
s(I14
I6
I2
I50
I20161121
I0
tp828
I142201
s(I14
I7
I4
I14
I20161122
I0
tp829
I140316
s(I14
I6
I5
I72
I20161121
I0
tp830
I141716
s(I14
I5
I8
I19
I20161115
I0
tp831
I140821
s(I14
I5
I3
I30
I20161115
I0
tp832
I140631
s(I14
I6
I1
I40
I20161121
I0
tp833
I142089
s(I14
I5
I8
I11
I20161115
I0
tp834
I140813
s(I14
I7
I8
I57
I20161122
I0
tp835
I141283
s(I14
I5
I8
I65
I20161115
I0
tp836
I140867
s(I14
I5
I5
I19
I20161115
I0
tp837
I141459
s(I14
I7
I1
I96
I20161122
I0
tp838
I140095
s(I14
I6
I1
I41
I20161121
I0
tp839
I142090
s(I14
I7
I3
I77
I20161122
I0
tp840
I140278
s(I14
I7
I2
I53
I20161122
I0
tp841
I140151
s(I14
I7
I1
I63
I20161122
I0
tp842
I140062
s(I14
I6
I6
I74
I20161121
I0
tp843
I141817
s(I14
I6
I4
I12
I20161121
I0
tp844
I142372
s(I14
I7
I7
I62
I20161122
I0
tp845
I141184
s(I14
I5
I1
I69
I20161115
I0
tp846
I140474
s(I14
I7
I5
I72
I20161122
I0
tp847
I140977
s(I14
I6
I4
I60
I20161121
I0
tp848
I142420
s(I14
I6
I7
I44
I20161121
I0
tp849
I141888
s(I14
I7
I4
I46
I20161122
I0
tp850
I140348
s(I14
I5
I4
I81
I20161115
I0
tp851
I141420
s(I14
I5
I6
I44
I20161115
I0
tp852
I141585
s(I14
I7
I3
I20
I20161122
I0
tp853
I140221
s(I14
I6
I1
I59
I20161121
I0
tp854
I142108
s(I14
I6
I1
I76
I20161121
I0
tp855
I142125
s(I14
I7
I8
I95
I20161122
I0
tp856
I141321
s(I14
I7
I2
I95
I20161122
I0
tp857
I140193
s(I14
I7
I5
I50
I20161122
I0
tp858
I140955
s(I14
I7
I4
I29
I20161122
I0
tp859
I140331
s(I14
I5
I3
I37
I20161115
I0
tp860
I140638
s(I14
I5
I6
I9
I20161115
I0
tp861
I141550
s(I14
I6
I7
I30
I20161121
I0
tp862
I141874
s(I14
I6
I1
I11
I20161121
I0
tp863
I142060
s(I14
I7
I3
I88
I20161122
I0
tp864
I140289
s(I14
I5
I4
I72
I20161115
I0
tp865
I141411
s(I14
I7
I5
I2
I20161122
I0
tp866
I140907
s(I14
I6
I3
I57
I20161121
I0
tp867
I142309
s(I14
I7
I4
I65
I20161122
I0
tp868
I140367
s(I14
I6
I5
I45
I20161121
I0
tp869
I141689
s(I14
I5
I3
I100
I20161115
I0
tp870
I140701
s(I14
I7
I1
I64
I20161122
I0
tp871
I140063
s(I14
I7
I2
I82
I20161122
I0
tp872
I140180
s(I14
I7
I5
I47
I20161122
I0
tp873
I140952
s(I14
I7
I4
I24
I20161122
I0
tp874
I140326
s(I14
I6
I8
I48
I20161121
I0
tp875
I141996
s(I14
I6
I5
I99
I20161121
I0
tp876
I141743
s(I14
I7
I1
I4
I20161122
I0
tp877
I140003
s(I14
I7
I2
I34
I20161122
I0
tp878
I140132
s(I14
I7
I8
I102
I20161122
I0
tp879
I141328
s(I14
I6
I3
I43
I20161121
I0
tp880
I142295
s(I14
I6
I8
I64
I20161121
I0
tp881
I142012
s(I14
I7
I7
I13
I20161122
I0
tp882
I141135
s(I14
I6
I6
I67
I20161121
I0
tp883
I141810
s(I14
I7
I8
I85
I20161122
I0
tp884
I141311
s(I14
I5
I5
I99
I20161115
I0
tp885
I141539
s(I14
I6
I5
I31
I20161121
I0
tp886
I141675
s(I14
I5
I5
I75
I20161115
I0
tp887
I141515
s(I14
I7
I3
I59
I20161122
I0
tp888
I140260
s(I14
I5
I5
I46
I20161115
I0
tp889
I141486
s(I14
I5
I6
I78
I20161115
I0
tp890
I141619
s(I14
I7
I2
I76
I20161122
I0
tp891
I140174
s(I14
I7
I5
I4
I20161122
I0
tp892
I140909
s(I14
I7
I5
I61
I20161122
I0
tp893
I140966
s(I14
I5
I4
I79
I20161115
I0
tp894
I141418
s(I14
I7
I4
I97
I20161122
I0
tp895
I140399
s(I14
I6
I5
I13
I20161121
I0
tp896
I141657
s(I14
I7
I6
I63
I20161122
I0
tp897
I141074
s(I14
I7
I1
I35
I20161122
I0
tp898
I140034
s(I14
I5
I8
I103
I20161115
I0
tp899
I140905
s(I14
I6
I7
I42
I20161121
I0
tp900
I141886
s(I14
I6
I5
I73
I20161121
I0
tp901
I141717
s(I14
I7
I1
I83
I20161122
I0
tp902
I140082
s(I14
I5
I7
I58
I20161115
I0
tp903
I140759
s(I14
I5
I8
I70
I20161115
I0
tp904
I140872
s(I14
I5
I7
I18
I20161115
I0
tp905
I140719
s(I14
I6
I4
I98
I20161121
I0
tp906
I142458
s(I14
I6
I6
I60
I20161121
I0
tp907
I141803
s(I14
I7
I3
I28
I20161122
I0
tp908
I140229
s(I14
I6
I2
I32
I20161121
I0
tp909
I142183
s(I14
I5
I4
I16
I20161115
I0
tp910
I141355
s(I14
I7
I4
I43
I20161122
I0
tp911
I140345
s(I14
I5
I3
I72
I20161115
I0
tp912
I140673
s(I14
I6
I7
I28
I20161121
I0
tp913
I141872
s(I14
I7
I1
I93
I20161122
I0
tp914
I140092
s(I14
I7
I2
I81
I20161122
I0
tp915
I140179
s(I14
I7
I8
I49
I20161122
I0
tp916
I141275
s(I14
I5
I1
I64
I20161115
I0
tp917
I140469
s(I14
I5
I2
I8
I20161115
I0
tp918
I140511
s(I14
I6
I4
I80
I20161121
I0
tp919
I142440
s(I14
I7
I7
I90
I20161122
I0
tp920
I141212
s(I14
I6
I7
I88
I20161121
I0
tp921
I141932
s(I14
I6
I4
I79
I20161121
I0
tp922
I142439
s(I14
I6
I1
I82
I20161121
I0
tp923
I142131
s(I14
I7
I5
I93
I20161122
I0
tp924
I140998
s(I14
I7
I7
I19
I20161122
I0
tp925
I141141
s(I14
I7
I6
I92
I20161122
I0
tp926
I141103
s(I14
I5
I4
I73
I20161115
I0
tp927
I141412
s(I14
I6
I1
I16
I20161121
I0
tp928
I142065
s(I14
I7
I8
I11
I20161122
I0
tp929
I141237
s(I14
I6
I3
I41
I20161121
I0
tp930
I142293
s(I14
I5
I3
I63
I20161115
I0
tp931
I140664
s(I14
I7
I6
I12
I20161122
I0
tp932
I141023
s(I14
I5
I8
I45
I20161115
I0
tp933
I140847
s(I14
I6
I4
I35
I20161121
I0
tp934
I142395
s(I14
I6
I8
I30
I20161121
I0
tp935
I141978
s(I14
I6
I4
I53
I20161121
I0
tp936
I142413
s(I14
I6
I6
I28
I20161121
I0
tp937
I141771
s(I14
I5
I6
I88
I20161115
I0
tp938
I141629
s(I14
I5
I4
I53
I20161115
I0
tp939
I141392
s(I14
I5
I5
I45
I20161115
I0
tp940
I141485
s(I14
I7
I4
I37
I20161122
I0
tp941
I140339
s(I14
I7
I4
I76
I20161122
I0
tp942
I140378
s(I14
I7
I7
I61
I20161122
I0
tp943
I141183
s(I14
I6
I6
I80
I20161121
I0
tp944
I141823
s(I14
I6
I3
I77
I20161121
I0
tp945
I142329
s(I14
I7
I4
I21
I20161122
I0
tp946
I140323
s(I14
I7
I4
I60
I20161122
I0
tp947
I140362
s(I14
I5
I6
I3
I20161115
I0
tp948
I141544
s(I14
I5
I5
I15
I20161115
I0
tp949
I141455
s(I14
I6
I5
I75
I20161121
I0
tp950
I141719
s(I14
I7
I1
I46
I20161122
I0
tp951
I140045
s(I14
I6
I7
I13
I20161121
I0
tp952
I141857
s(I14
I7
I8
I88
I20161122
I0
tp953
I141314
s(I14
I7
I2
I77
I20161122
I0
tp954
I140175
s(I14
I5
I5
I78
I20161115
I0
tp955
I141518
s(I14
I6
I7
I61
I20161121
I0
tp956
I141905
s(I14
I6
I1
I25
I20161121
I0
tp957
I142074
s(I14
I7
I2
I29
I20161122
I0
tp958
I140127
s(I14
I5
I5
I54
I20161115
I0
tp959
I141494
s(I14
I6
I2
I71
I20161121
I0
tp960
I142222
s(I14
I7
I8
I4
I20161122
I0
tp961
I141230
s(I14
I5
I4
I47
I20161115
I0
tp962
I141386
s(I14
I7
I5
I80
I20161122
I0
tp963
I140985
s(I14
I5
I2
I80
I20161115
I0
tp964
I140583
s(I14
I5
I5
I50
I20161115
I0
tp965
I141490
s(I14
I7
I7
I32
I20161122
I0
tp966
I141154
s(I14
I6
I8
I73
I20161121
I0
tp967
I142021
s(I14
I7
I1
I82
I20161122
I0
tp968
I140081
s(I14
I7
I6
I99
I20161122
I0
tp969
I141110
s(I14
I7
I5
I25
I20161122
I0
tp970
I140930
s(I14
I6
I2
I9
I20161121
I0
tp971
I142160
s(I14
I5
I3
I87
I20161115
I0
tp972
I140688
s(I14
I5
I7
I28
I20161115
I0
tp973
I140729
s(I14
I5
I2
I75
I20161115
I0
tp974
I140578
s(I14
I5
I5
I100
I20161115
I0
tp975
I141540
s(I14
I6
I2
I89
I20161121
I0
tp976
I142240
s(I14
I5
I7
I50
I20161115
I0
tp977
I140751
s(I14
I7
I4
I54
I20161122
I0
tp978
I140356
s(I14
I6
I7
I6
I20161121
I0
tp979
I141850
s(I14
I7
I6
I26
I20161122
I0
tp980
I141037
s(I14
I6
I7
I43
I20161121
I0
tp981
I141887
s(I14
I6
I7
I72
I20161121
I0
tp982
I141916
s(I14
I5
I1
I20
I20161115
I0
tp983
I140425
s(I14
I7
I2
I58
I20161122
I0
tp984
I140156
s(I14
I7
I8
I36
I20161122
I0
tp985
I141262
s(I14
I7
I7
I38
I20161122
I0
tp986
I141160
s(I14
I7
I7
I79
I20161122
I0
tp987
I141201
s(I14
I7
I4
I35
I20161122
I0
tp988
I140337
s(I14
I7
I7
I22
I20161122
I0
tp989
I141144
s(I14
I5
I8
I97
I20161115
I0
tp990
I140899
s(I14
I6
I4
I43
I20161121
I0
tp991
I142403
s(I14
I5
I8
I67
I20161115
I0
tp992
I140869
s(I14
I7
I7
I98
I20161122
I0
tp993
I141220
s(I14
I5
I8
I13
I20161115
I0
tp994
I140815
s(I14
I5
I7
I91
I20161115
I0
tp995
I140792
s(I14
I5
I8
I37
I20161115
I0
tp996
I140839
s(I14
I5
I5
I13
I20161115
I0
tp997
I141453
s(I14
I5
I6
I95
I20161115
I0
tp998
I141636
s(I14
I7
I3
I69
I20161122
I0
tp999
I140270
s(I14
I5
I4
I59
I20161115
I0
tp1000
I141398
s(I14
I5
I6
I66
I20161115
I0
tp1001
I141607
s(I14
I6
I6
I64
I20161121
I0
tp1002
I141807
s(I14
I6
I1
I68
I20161121
I0
tp1003
I142117
s(I14
I5
I4
I83
I20161115
I0
tp1004
I141422
s(I14
I5
I4
I21
I20161115
I0
tp1005
I141360
s(I14
I7
I5
I74
I20161122
I0
tp1006
I140979
s(I14
I6
I3
I102
I20161121
I0
tp1007
I142354
s(I14
I5
I4
I84
I20161115
I0
tp1008
I141423
s(I14
I5
I3
I75
I20161115
I0
tp1009
I140676
s(I14
I5
I4
I50
I20161115
I0
tp1010
I141389
s(I14
I7
I6
I36
I20161122
I0
tp1011
I141047
s(I14
I5
I6
I35
I20161115
I0
tp1012
I141576
s(I14
I6
I1
I24
I20161121
I0
tp1013
I142073
s(I14
I7
I5
I26
I20161122
I0
tp1014
I140931
s(I14
I6
I3
I33
I20161121
I0
tp1015
I142285
s(I14
I6
I3
I86
I20161121
I0
tp1016
I142338
s(I14
I7
I4
I73
I20161122
I0
tp1017
I140375
s(I14
I7
I7
I40
I20161122
I0
tp1018
I141162
s(I14
I7
I6
I23
I20161122
I0
tp1019
I141034
s(I14
I5
I1
I47
I20161115
I0
tp1020
I140452
s(I14
I5
I1
I48
I20161115
I0
tp1021
I140453
s(I14
I6
I3
I16
I20161121
I0
tp1022
I142268
s(I14
I5
I6
I11
I20161115
I0
tp1023
I141552
s(I14
I7
I7
I69
I20161122
I0
tp1024
I141191
s(I14
I5
I5
I23
I20161115
I0
tp1025
I141463
s(I14
I7
I4
I68
I20161122
I0
tp1026
I140370
s(I14
I7
I7
I53
I20161122
I0
tp1027
I141175
s(I14
I7
I6
I18
I20161122
I0
tp1028
I141029
s(I14
I6
I8
I87
I20161121
I0
tp1029
I142035
s(I14
I5
I6
I93
I20161115
I0
tp1030
I141634
s(I14
I5
I5
I101
I20161115
I0
tp1031
I141541
s(I14
I7
I1
I6
I20161122
I0
tp1032
I140005
s(I14
I7
I5
I101
I20161122
I0
tp1033
I141006
s(I14
I5
I2
I45
I20161115
I0
tp1034
I140548
s(I14
I6
I5
I60
I20161121
I0
tp1035
I141704
s(I14
I7
I1
I54
I20161122
I0
tp1036
I140053
s(I14
I6
I7
I21
I20161121
I0
tp1037
I141865
s(I14
I7
I5
I53
I20161122
I0
tp1038
I140958
s(I14
I6
I2
I37
I20161121
I0
tp1039
I142188
s(I14
I5
I8
I41
I20161115
I0
tp1040
I140843
s(I14
I7
I7
I72
I20161122
I0
tp1041
I141194
s(I14
I7
I6
I55
I20161122
I0
tp1042
I141066
s(I14
I6
I7
I87
I20161121
I0
tp1043
I141931
s(I14
I6
I1
I85
I20161121
I0
tp1044
I142134
s(I14
I5
I7
I69
I20161115
I0
tp1045
I140770
s(I14
I6
I6
I6
I20161121
I0
tp1046
I141749
s(I14
I5
I5
I44
I20161115
I0
tp1047
I141484
s(I14
I6
I5
I34
I20161121
I0
tp1048
I141678
s(I14
I7
I6
I107
I20161122
I0
tp1049
I141118
s(I14
I6
I7
I7
I20161121
I0
tp1050
I141851
s(I14
I5
I2
I26
I20161115
I0
tp1051
I140529
s(I14
I6
I1
I92
I20161121
I0
tp1052
I142141
s(I14
I6
I7
I73
I20161121
I0
tp1053
I141917
s(I14
I6
I2
I51
I20161121
I0
tp1054
I142202
s(I14
I7
I4
I83
I20161122
I0
tp1055
I140385
s(I14
I6
I4
I27
I20161121
I0
tp1056
I142387
s(I14
I6
I7
I4
I20161121
I0
tp1057
I141848
s(I14
I6
I2
I3
I20161121
I0
tp1058
I142154
s(I14
I5
I8
I35
I20161115
I0
tp1059
I140837
s(I14
I7
I6
I33
I20161122
I0
tp1060
I141044
s(I14
I5
I1
I66
I20161115
I0
tp1061
I140471
s(I14
I5
I2
I14
I20161115
I0
tp1062
I140517
s(I14
I7
I1
I9
I20161122
I0
tp1063
I140008
s(I14
I7
I7
I27
I20161122
I0
tp1064
I141149
s(I14
I7
I8
I78
I20161122
I0
tp1065
I141304
s(I14
I7
I6
I84
I20161122
I0
tp1066
I141095
s(I14
I5
I8
I18
I20161115
I0
tp1067
I140820
s(I14
I5
I4
I51
I20161115
I0
tp1068
I141390
s(I14
I5
I7
I48
I20161115
I0
tp1069
I140749
s(I14
I7
I2
I47
I20161122
I0
tp1070
I140145
s(I14
I7
I7
I71
I20161122
I0
tp1071
I141193
s(I14
I5
I4
I18
I20161115
I0
tp1072
I141357
s(I14
I5
I8
I55
I20161115
I0
tp1073
I140857
s(I14
I5
I3
I70
I20161115
I0
tp1074
I140671
s(I14
I5
I4
I42
I20161115
I0
tp1075
I141381
s(I14
I6
I3
I10
I20161121
I0
tp1076
I142262
s(I14
I5
I3
I94
I20161115
I0
tp1077
I140695
s(I14
I5
I1
I53
I20161115
I0
tp1078
I140458
s(I14
I5
I7
I97
I20161115
I0
tp1079
I140798
s(I14
I5
I1
I30
I20161115
I0
tp1080
I140435
s(I14
I6
I6
I15
I20161121
I0
tp1081
I141758
s(I14
I6
I2
I68
I20161121
I0
tp1082
I142219
s(I14
I7
I3
I62
I20161122
I0
tp1083
I140263
s(I14
I7
I6
I2
I20161122
I0
tp1084
I141013
s(I14
I6
I8
I39
I20161121
I0
tp1085
I141987
s(I14
I6
I6
I63
I20161121
I0
tp1086
I141806
s(I14
I7
I3
I14
I20161122
I0
tp1087
I140215
s(I14
I7
I7
I97
I20161122
I0
tp1088
I141219
s(I14
I7
I6
I47
I20161122
I0
tp1089
I141058
s(I14
I7
I6
I70
I20161122
I0
tp1090
I141081
s(I14
I6
I8
I6
I20161121
I0
tp1091
I141954
s(I14
I5
I3
I18
I20161115
I0
tp1092
I140619
s(I14
I5
I6
I25
I20161115
I0
tp1093
I141566
s(I14
I6
I2
I86
I20161121
I0
tp1094
I142237
s(I14
I5
I2
I12
I20161115
I0
tp1095
I140515
s(I14
I5
I6
I1
I20161115
I0
tp1096
I141542
s(I14
I6
I5
I44
I20161121
I0
tp1097
I141688
s(I14
I5
I6
I101
I20161115
I0
tp1098
I141642
s(I14
I7
I3
I11
I20161122
I0
tp1099
I140212
s(I14
I5
I6
I32
I20161115
I0
tp1100
I141573
s(I14
I5
I4
I17
I20161115
I0
tp1101
I141356
s(I14
I6
I7
I65
I20161121
I0
tp1102
I141909
s(I14
I6
I2
I95
I20161121
I0
tp1103
I142246
s(I14
I7
I4
I91
I20161122
I0
tp1104
I140393
s(I14
I6
I3
I42
I20161121
I0
tp1105
I142294
s(I14
I5
I8
I9
I20161115
I0
tp1106
I140811
s(I14
I7
I8
I25
I20161122
I0
tp1107
I141251
s(I14
I5
I3
I98
I20161115
I0
tp1108
I140699
s(I14
I5
I7
I71
I20161115
I0
tp1109
I140772
s(I14
I6
I2
I1
I20161121
I0
tp1110
I142152
s(I14
I7
I1
I80
I20161122
I0
tp1111
I140079
s(I14
I6
I1
I57
I20161121
I0
tp1112
I142106
s(I14
I5
I7
I101
I20161115
I0
tp1113
I140802
s(I14
I7
I3
I93
I20161122
I0
tp1114
I140294
s(I14
I6
I8
I29
I20161121
I0
tp1115
I141977
s(I14
I6
I5
I94
I20161121
I0
tp1116
I141738
s(I14
I6
I1
I9
I20161121
I0
tp1117
I142058
s(I14
I7
I3
I45
I20161122
I0
tp1118
I140246
s(I14
I7
I7
I3
I20161122
I0
tp1119
I141125
s(I14
I7
I5
I88
I20161122
I0
tp1120
I140993
s(I14
I7
I6
I102
I20161122
I0
tp1121
I141113
s(I14
I5
I2
I55
I20161115
I0
tp1122
I140558
s(I14
I5
I1
I35
I20161115
I0
tp1123
I140440
s(I14
I5
I2
I15
I20161115
I0
tp1124
I140518
s(I14
I6
I6
I78
I20161121
I0
tp1125
I141821
s(I14
I6
I1
I93
I20161121
I0
tp1126
I142142
s(I14
I5
I7
I44
I20161115
I0
tp1127
I140745
s(I14
I6
I4
I37
I20161121
I0
tp1128
I142397
s(I14
I5
I1
I98
I20161115
I0
tp1129
I140503
s(I14
I5
I2
I46
I20161115
I0
tp1130
I140549
s(I14
I5
I3
I12
I20161115
I0
tp1131
I140613
s(I14
I6
I1
I62
I20161121
I0
tp1132
I142111
s(I14
I6
I7
I14
I20161121
I0
tp1133
I141858
s(I14
I6
I1
I27
I20161121
I0
tp1134
I142076
s(I14
I5
I8
I16
I20161115
I0
tp1135
I140818
s(I14
I6
I3
I85
I20161121
I0
tp1136
I142337
s(I14
I7
I2
I63
I20161122
I0
tp1137
I140161
s(I14
I7
I6
I5
I20161122
I0
tp1138
I141016
s(I14
I7
I8
I58
I20161122
I0
tp1139
I141284
s(I14
I5
I8
I8
I20161115
I0
tp1140
I140810
s(I14
I6
I6
I61
I20161121
I0
tp1141
I141804
s(I14
I6
I5
I29
I20161121
I0
tp1142
I141673
s(I14
I5
I8
I78
I20161115
I0
tp1143
I140880
s(I14
I7
I3
I56
I20161122
I0
tp1144
I140257
s(I14
I6
I4
I19
I20161121
I0
tp1145
I142379
s(I14
I5
I8
I23
I20161115
I0
tp1146
I140825
s(I14
I5
I8
I15
I20161115
I0
tp1147
I140817
s(I14
I7
I2
I50
I20161122
I0
tp1148
I140148
s(I14
I7
I5
I15
I20161122
I0
tp1149
I140920
s(I14
I6
I4
I81
I20161121
I0
tp1150
I142441
s(I14
I6
I8
I80
I20161121
I0
tp1151
I142028
s(I14
I6
I5
I3
I20161121
I0
tp1152
I141647
s(I14
I7
I2
I5
I20161122
I0
tp1153
I140103
s(I14
I6
I2
I16
I20161121
I0
tp1154
I142167
s(I14
I7
I8
I69
I20161122
I0
tp1155
I141295
s(I14
I7
I5
I75
I20161122
I0
tp1156
I140980
s(I14
I6
I8
I96
I20161121
I0
tp1157
I142044
s(I14
I6
I6
I99
I20161121
I0
tp1158
I141842
s(I14
I6
I3
I94
I20161121
I0
tp1159
I142346
s(I14
I6
I2
I96
I20161121
I0
tp1160
I142247
s(I14
I7
I3
I98
I20161122
I0
tp1161
I140299
s(I14
I7
I7
I80
I20161122
I0
tp1162
I141202
s(I14
I7
I8
I1
I20161122
I0
tp1163
I141227
s(I14
I6
I5
I26
I20161121
I0
tp1164
I141670
s(I14
I5
I1
I65
I20161115
I0
tp1165
I140470
s(I14
I6
I5
I63
I20161121
I0
tp1166
I141707
s(I14
I5
I1
I42
I20161115
I0
tp1167
I140447
s(I14
I7
I3
I27
I20161122
I0
tp1168
I140228
s(I14
I6
I3
I24
I20161121
I0
tp1169
I142276
s(I14
I6
I2
I34
I20161121
I0
tp1170
I142185
s(I14
I7
I2
I92
I20161122
I0
tp1171
I140190
s(I14
I7
I4
I30
I20161122
I0
tp1172
I140332
s(I14
I5
I5
I92
I20161115
I0
tp1173
I141532
s(I14
I5
I6
I10
I20161115
I0
tp1174
I141551
s(I14
I5
I6
I64
I20161115
I0
tp1175
I141605
s(I14
I5
I4
I23
I20161115
I0
tp1176
I141362
s(I14
I7
I3
I54
I20161122
I0
tp1177
I140255
s(I14
I5
I7
I46
I20161115
I0
tp1178
I140747
s(I14
I7
I2
I44
I20161122
I0
tp1179
I140142
s(I14
I7
I6
I10
I20161122
I0
tp1180
I141021
s(I14
I5
I6
I40
I20161115
I0
tp1181
I141581
s(I14
I5
I4
I101
I20161115
I0
tp1182
I141440
s(I14
I6
I2
I43
I20161121
I0
tp1183
I142194
s(I14
I5
I3
I24
I20161115
I0
tp1184
I140625
s(I14
I5
I3
I54
I20161115
I0
tp1185
I140655
s(I14
I5
I1
I29
I20161115
I0
tp1186
I140434
s(I14
I6
I5
I36
I20161121
I0
tp1187
I141680
s(I14
I6
I4
I2
I20161121
I0
tp1188
I142362
s(I14
I7
I1
I52
I20161122
I0
tp1189
I140051
s(I14
I7
I8
I86
I20161122
I0
tp1190
I141312
s(I14
I7
I2
I97
I20161122
I0
tp1191
I140195
s(I14
I7
I8
I33
I20161122
I0
tp1192
I141259
s(I14
I6
I4
I64
I20161121
I0
tp1193
I142424
s(I14
I6
I7
I60
I20161121
I0
tp1194
I141904
s(I14
I6
I6
I30
I20161121
I0
tp1195
I141773
s(I14
I5
I2
I47
I20161115
I0
tp1196
I140550
s(I14
I5
I5
I70
I20161115
I0
tp1197
I141510
s(I14
I7
I1
I30
I20161122
I0
tp1198
I140029
s(I14
I6
I8
I77
I20161121
I0
tp1199
I142025
s(I14
I5
I6
I91
I20161115
I0
tp1200
I141632
s(I14
I6
I1
I33
I20161121
I0
tp1201
I142082
s(I14
I5
I6
I67
I20161115
I0
tp1202
I141608
s(I14
I6
I4
I89
I20161121
I0
tp1203
I142449
s(I14
I5
I5
I79
I20161115
I0
tp1204
I141519
s(I14
I6
I6
I39
I20161121
I0
tp1205
I141782
s(I14
I7
I4
I98
I20161122
I0
tp1206
I140400
s(I14
I6
I5
I15
I20161121
I0
tp1207
I141659
s(I14
I5
I8
I76
I20161115
I0
tp1208
I140878
s(I14
I7
I8
I107
I20161122
I0
tp1209
I141333
s(I14
I6
I3
I9
I20161121
I0
tp1210
I142261
s(I14
I7
I6
I105
I20161122
I0
tp1211
I141116
s(I14
I5
I8
I100
I20161115
I0
tp1212
I140902
s(I14
I5
I2
I83
I20161115
I0
tp1213
I140586
s(I14
I5
I8
I46
I20161115
I0
tp1214
I140848
s(I14
I5
I7
I96
I20161115
I0
tp1215
I140797
s(I14
I6
I1
I63
I20161121
I0
tp1216
I142112
s(I14
I7
I8
I91
I20161122
I0
tp1217
I141317
s(I14
I7
I6
I89
I20161122
I0
tp1218
I141100
s(I14
I6
I6
I17
I20161121
I0
tp1219
I141760
s(I14
I6
I8
I62
I20161121
I0
tp1220
I142010
s(I14
I6
I2
I78
I20161121
I0
tp1221
I142229
s(I14
I7
I1
I20
I20161122
I0
tp1222
I140019
s(I14
I5
I5
I27
I20161115
I0
tp1223
I141467
s(I14
I7
I5
I91
I20161122
I0
tp1224
I140996
s(I14
I7
I4
I5
I20161122
I0
tp1225
I140307
s(I14
I5
I5
I3
I20161115
I0
tp1226
I141443
s(I14
I7
I7
I29
I20161122
I0
tp1227
I141151
s(I14
I7
I2
I94
I20161122
I0
tp1228
I140192
s(I14
I7
I8
I50
I20161122
I0
tp1229
I141276
s(I14
I6
I8
I12
I20161121
I0
tp1230
I141960
s(I14
I6
I3
I50
I20161121
I0
tp1231
I142302
s(I14
I6
I4
I32
I20161121
I0
tp1232
I142392
s(I14
I6
I6
I7
I20161121
I0
tp1233
I141750
s(I14
I7
I1
I78
I20161122
I0
tp1234
I140077
s(I14
I6
I7
I45
I20161121
I0
tp1235
I141889
s(I14
I7
I2
I45
I20161122
I0
tp1236
I140143
s(I14
I7
I5
I45
I20161122
I0
tp1237
I140950
s(I14
I5
I8
I53
I20161115
I0
tp1238
I140855
s(I14
I6
I5
I27
I20161121
I0
tp1239
I141671
s(I14
I5
I6
I42
I20161115
I0
tp1240
I141583
s(I14
I7
I8
I93
I20161122
I0
tp1241
I141319
s(I14
I7
I8
I100
I20161122
I0
tp1242
I141326
s(I14
I7
I5
I48
I20161122
I0
tp1243
I140953
s(I14
I6
I4
I52
I20161121
I0
tp1244
I142412
s(I14
I5
I4
I69
I20161115
I0
tp1245
I141408
s(I14
I6
I5
I89
I20161121
I0
tp1246
I141733
s(I14
I5
I7
I89
I20161115
I0
tp1247
I140790
s(I14
I5
I3
I56
I20161115
I0
tp1248
I140657
s(I14
I6
I7
I31
I20161121
I0
tp1249
I141875
s(I14
I5
I3
I16
I20161115
I0
tp1250
I140617
s(I14
I6
I7
I15
I20161121
I0
tp1251
I141859
s(I14
I5
I3
I49
I20161115
I0
tp1252
I140650
s(I14
I5
I1
I24
I20161115
I0
tp1253
I140429
s(I14
I7
I2
I84
I20161122
I0
tp1254
I140182
s(I14
I7
I4
I22
I20161122
I0
tp1255
I140324
s(I14
I6
I5
I80
I20161121
I0
tp1256
I141724
s(I14
I6
I7
I38
I20161121
I0
tp1257
I141882
s(I14
I7
I3
I80
I20161122
I0
tp1258
I140281
s(I14
I6
I8
I89
I20161121
I0
tp1259
I142037
s(I14
I6
I7
I104
I20161121
I0
tp1260
I141948
s(I14
I7
I1
I72
I20161122
I0
tp1261
I140071
s(I14
I7
I1
I33
I20161122
I0
tp1262
I140032
s(I14
I6
I1
I66
I20161121
I0
tp1263
I142115
s(I14
I5
I6
I69
I20161115
I0
tp1264
I141610
s(I14
I5
I5
I77
I20161115
I0
tp1265
I141517
s(I14
I5
I6
I15
I20161115
I0
tp1266
I141556
s(I14
I6
I4
I91
I20161121
I0
tp1267
I142451
s(I14
I5
I6
I45
I20161115
I0
tp1268
I141586
s(I14
I7
I1
I12
I20161122
I0
tp1269
I140011
s(I14
I7
I2
I26
I20161122
I0
tp1270
I140124
s(I14
I6
I3
I35
I20161121
I0
tp1271
I142287
s(I14
I7
I5
I83
I20161122
I0
tp1272
I140988
s(I14
I5
I4
I44
I20161115
I0
tp1273
I141383
s(I14
I7
I7
I6
I20161122
I0
tp1274
I141128
s(I14
I5
I4
I71
I20161115
I0
tp1275
I141410
s(I14
I5
I2
I93
I20161115
I0
tp1276
I140596
s(I14
I5
I2
I53
I20161115
I0
tp1277
I140556
s(I14
I5
I8
I68
I20161115
I0
tp1278
I140870
s(I14
I7
I7
I66
I20161122
I0
tp1279
I141188
s(I14
I5
I3
I90
I20161115
I0
tp1280
I140691
s(I14
I5
I2
I84
I20161115
I0
tp1281
I140587
s(I14
I7
I8
I55
I20161122
I0
tp1282
I141281
s(I14
I5
I7
I61
I20161115
I0
tp1283
I140762
s(I14
I5
I7
I42
I20161115
I0
tp1284
I140743
s(I14
I6
I6
I96
I20161121
I0
tp1285
I141839
s(I14
I5
I5
I1
I20161115
I0
tp1286
I141441
s(I14
I7
I5
I42
I20161122
I0
tp1287
I140947
s(I14
I7
I8
I34
I20161122
I0
tp1288
I141260
s(I14
I6
I5
I5
I20161121
I0
tp1289
I141649
s(I14
I7
I6
I7
I20161122
I0
tp1290
I141018
s(I14
I7
I1
I43
I20161122
I0
tp1291
I140042
s(I14
I6
I3
I1
I20161121
I0
tp1292
I142253
s(I14
I7
I5
I102
I20161122
I0
tp1293
I141007
s(I14
I7
I4
I41
I20161122
I0
tp1294
I140343
s(I14
I6
I5
I53
I20161121
I0
tp1295
I141697
s(I14
I6
I5
I65
I20161121
I0
tp1296
I141709
s(I14
I7
I1
I91
I20161122
I0
tp1297
I140090
s(I14
I6
I7
I23
I20161121
I0
tp1298
I141867
s(I14
I5
I2
I24
I20161115
I0
tp1299
I140527
s(I14
I5
I5
I21
I20161115
I0
tp1300
I141461
s(I14
I7
I7
I37
I20161122
I0
tp1301
I141159
s(I14
I6
I7
I89
I20161121
I0
tp1302
I141933
s(I14
I7
I8
I20
I20161122
I0
tp1303
I141246
s(I14
I5
I8
I43
I20161115
I0
tp1304
I140845
s(I14
I7
I4
I36
I20161122
I0
tp1305
I140338
s(I14
I7
I7
I21
I20161122
I0
tp1306
I141143
s(I14
I6
I6
I91
I20161121
I0
tp1307
I141834
s(I14
I5
I8
I10
I20161115
I0
tp1308
I140812
s(I14
I6
I7
I9
I20161121
I0
tp1309
I141853
s(I14
I7
I2
I73
I20161122
I0
tp1310
I140171
s(I14
I7
I8
I9
I20161122
I0
tp1311
I141235
s(I14
I7
I4
I19
I20161122
I0
tp1312
I140321
s(I14
I5
I7
I51
I20161115
I0
tp1313
I140752
s(I14
I6
I8
I53
I20161121
I0
tp1314
I142001
s(I14
I5
I6
I71
I20161115
I0
tp1315
I141612
s(I14
I7
I1
I38
I20161122
I0
tp1316
I140037
s(I14
I7
I8
I64
I20161122
I0
tp1317
I141290
s(I14
I5
I7
I81
I20161115
I0
tp1318
I140782
s(I14
I7
I5
I69
I20161122
I0
tp1319
I140974
s(I14
I5
I4
I26
I20161115
I0
tp1320
I141365
s(I14
I7
I3
I21
I20161122
I0
tp1321
I140222
s(I14
I7
I1
I86
I20161122
I0
tp1322
I140085
s(I14
I6
I7
I53
I20161121
I0
tp1323
I141897
s(I14
I5
I7
I52
I20161115
I0
tp1324
I140753
s(I14
I7
I5
I21
I20161122
I0
tp1325
I140926
s(I14
I7
I4
I74
I20161122
I0
tp1326
I140376
s(I14
I7
I6
I20
I20161122
I0
tp1327
I141031
s(I14
I6
I7
I82
I20161121
I0
tp1328
I141926
s(I14
I6
I8
I101
I20161121
I0
tp1329
I142049
s(I14
I5
I1
I55
I20161115
I0
tp1330
I140460
s(I14
I5
I6
I12
I20161115
I0
tp1331
I141553
s(I14
I6
I6
I36
I20161121
I0
tp1332
I141779
s(I14
I6
I2
I81
I20161121
I0
tp1333
I142232
s(I14
I5
I1
I18
I20161115
I0
tp1334
I140423
s(I14
I5
I1
I60
I20161115
I0
tp1335
I140465
s(I14
I5
I6
I77
I20161115
I0
tp1336
I141618
s(I14
I5
I7
I3
I20161115
I0
tp1337
I140704
s(I14
I5
I6
I23
I20161115
I0
tp1338
I141564
s(I14
I7
I8
I42
I20161122
I0
tp1339
I141268
s(I14
I6
I2
I19
I20161121
I0
tp1340
I142170
s(I14
I7
I4
I51
I20161122
I0
tp1341
I140353
s(I14
I6
I4
I59
I20161121
I0
tp1342
I142419
s(I14
I6
I4
I40
I20161121
I0
tp1343
I142400
s(I14
I6
I6
I22
I20161121
I0
tp1344
I141765
s(I14
I6
I7
I64
I20161121
I0
tp1345
I141908
s(I14
I5
I2
I85
I20161115
I0
tp1346
I140588
s(I14
I5
I3
I52
I20161115
I0
tp1347
I140653
s(I14
I7
I1
I41
I20161122
I0
tp1348
I140040
s(I14
I6
I1
I74
I20161121
I0
tp1349
I142123
s(I14
I5
I3
I82
I20161115
I0
tp1350
I140683
s(I14
I5
I6
I89
I20161115
I0
tp1351
I141630
s(I14
I5
I2
I76
I20161115
I0
tp1352
I140579
s(I14
I7
I1
I68
I20161122
I0
tp1353
I140067
s(I14
I6
I2
I85
I20161121
I0
tp1354
I142236
s(I14
I7
I6
I52
I20161122
I0
tp1355
I141063
s(I14
I6
I1
I8
I20161121
I0
tp1356
I142057
s(I14
I7
I8
I19
I20161122
I0
tp1357
I141245
s(I14
I7
I7
I56
I20161122
I0
tp1358
I141178
s(I14
I7
I6
I104
I20161122
I0
tp1359
I141115
s(I14
I7
I8
I67
I20161122
I0
tp1360
I141293
s(I14
I7
I6
I91
I20161122
I0
tp1361
I141102
s(I14
I7
I1
I15
I20161122
I0
tp1362
I140014
s(I14
I5
I6
I46
I20161115
I0
tp1363
I141587
s(I14
I5
I5
I53
I20161115
I0
tp1364
I141493
s(I14
I5
I6
I21
I20161115
I0
tp1365
I141562
s(I14
I7
I3
I30
I20161122
I0
tp1366
I140231
s(I14
I7
I4
I84
I20161122
I0
tp1367
I140386
s(I14
I5
I5
I29
I20161115
I0
tp1368
I141469
s(I14
I6
I8
I71
I20161121
I0
tp1369
I142019
s(I14
I5
I4
I97
I20161115
I0
tp1370
I141436
s(I14
I7
I7
I65
I20161122
I0
tp1371
I141187
s(I14
I7
I6
I15
I20161122
I0
tp1372
I141026
s(I14
I6
I8
I3
I20161121
I0
tp1373
I141951
s(I14
I5
I8
I102
I20161115
I0
tp1374
I140904
s(I14
I5
I8
I2
I20161115
I0
tp1375
I140804
s(I14
I5
I7
I83
I20161115
I0
tp1376
I140784
s(I14
I5
I6
I103
I20161115
I0
tp1377
I141644
s(I14
I5
I7
I21
I20161115
I0
tp1378
I140722
s(I14
I6
I7
I37
I20161121
I0
tp1379
I141881
s(I14
I5
I7
I75
I20161115
I0
tp1380
I140776
s(I14
I5
I4
I48
I20161115
I0
tp1381
I141387
s(I14
I7
I8
I60
I20161122
I0
tp1382
I141286
s(I14
I5
I7
I13
I20161115
I0
tp1383
I140714
s(I14
I5
I4
I66
I20161115
I0
tp1384
I141405
s(I14
I6
I7
I97
I20161121
I0
tp1385
I141941
s(I14
I7
I8
I108
I20161122
I0
tp1386
I141334
s(I14
I6
I1
I91
I20161121
I0
tp1387
I142140
s(I14
I7
I5
I97
I20161122
I0
tp1388
I141002
s(I14
I7
I4
I59
I20161122
I0
tp1389
I140361
s(I14
I7
I7
I55
I20161122
I0
tp1390
I141177
s(I14
I5
I8
I22
I20161115
I0
tp1391
I140824
s(I14
I6
I6
I14
I20161121
I0
tp1392
I141757
s(I14
I5
I1
I87
I20161115
I0
tp1393
I140492
s(I14
I6
I8
I25
I20161121
I0
tp1394
I141973
s(I14
I7
I3
I61
I20161122
I0
tp1395
I140262
s(I14
I5
I1
I63
I20161115
I0
tp1396
I140468
s(I14
I6
I4
I74
I20161121
I0
tp1397
I142434
s(I14
I6
I6
I72
I20161121
I0
tp1398
I141815
s(I14
I6
I7
I83
I20161121
I0
tp1399
I141927
s(I14
I5
I5
I83
I20161115
I0
tp1400
I141523
s(I14
I5
I1
I50
I20161115
I0
tp1401
I140455
s(I14
I6
I2
I61
I20161121
I0
tp1402
I142212
s(I14
I7
I3
I13
I20161122
I0
tp1403
I140214
s(I14
I5
I1
I26
I20161115
I0
tp1404
I140431
s(I14
I6
I4
I17
I20161121
I0
tp1405
I142377
s(I14
I5
I3
I21
I20161115
I0
tp1406
I140622
s(I14
I7
I4
I103
I20161122
I0
tp1407
I140405
s(I14
I5
I8
I90
I20161115
I0
tp1408
I140892
s(I14
I7
I1
I25
I20161122
I0
tp1409
I140024
s(I14
I5
I6
I56
I20161115
I0
tp1410
I141597
s(I14
I6
I8
I86
I20161121
I0
tp1411
I142034
s(I14
I5
I6
I102
I20161115
I0
tp1412
I141643
s(I14
I5
I7
I22
I20161115
I0
tp1413
I140723
s(I14
I5
I8
I98
I20161115
I0
tp1414
I140900
s(I14
I5
I3
I84
I20161115
I0
tp1415
I140685
s(I14
I5
I3
I14
I20161115
I0
tp1416
I140615
s(I14
I6
I1
I30
I20161121
I0
tp1417
I142079
s(I14
I6
I3
I88
I20161121
I0
tp1418
I142340
s(I14
I7
I2
I31
I20161122
I0
tp1419
I140129
s(I14
I7
I7
I87
I20161122
I0
tp1420
I141209
s(I14
I6
I4
I3
I20161121
I0
tp1421
I142363
s(I14
I5
I3
I64
I20161115
I0
tp1422
I140665
s(I14
I6
I8
I45
I20161121
I0
tp1423
I141993
s(I14
I7
I1
I62
I20161122
I0
tp1424
I140061
s(I14
I6
I1
I32
I20161121
I0
tp1425
I142081
s(I14
I6
I1
I26
I20161121
I0
tp1426
I142075
s(I14
I6
I3
I78
I20161121
I0
tp1427
I142330
s(I14
I7
I5
I40
I20161122
I0
tp1428
I140945
s(I14
I7
I6
I86
I20161122
I0
tp1429
I141097
s(I14
I6
I5
I10
I20161121
I0
tp1430
I141654
s(I14
I5
I5
I32
I20161115
I0
tp1431
I141472
s(I14
I5
I4
I65
I20161115
I0
tp1432
I141404
s(I14
I6
I2
I64
I20161121
I0
tp1433
I142215
s(I14
I7
I3
I66
I20161122
I0
tp1434
I140267
s(I14
I7
I7
I48
I20161122
I0
tp1435
I141170
s(I14
I5
I3
I55
I20161115
I0
tp1436
I140656
s(I14
I5
I4
I89
I20161115
I0
tp1437
I141428
s(I14
I6
I5
I58
I20161121
I0
tp1438
I141702
s(I14
I5
I2
I43
I20161115
I0
tp1439
I140546
s(I14
I5
I3
I15
I20161115
I0
tp1440
I140616
s(I14
I5
I2
I6
I20161115
I0
tp1441
I140509
s(I14
I6
I2
I2
I20161121
I0
tp1442
I142153
s(I14
I7
I2
I60
I20161122
I0
tp1443
I140158
s(I14
I5
I7
I15
I20161115
I0
tp1444
I140716
s(I14
I6
I8
I63
I20161121
I0
tp1445
I142011
s(I14
I6
I7
I81
I20161121
I0
tp1446
I141925
s(I14
I6
I7
I62
I20161121
I0
tp1447
I141906
s(I14
I6
I2
I59
I20161121
I0
tp1448
I142210
s(I14
I6
I3
I60
I20161121
I0
tp1449
I142312
s(I14
I7
I2
I12
I20161122
I0
tp1450
I140110
s(I14
I5
I5
I94
I20161115
I0
tp1451
I141534
s(I14
I6
I8
I79
I20161121
I0
tp1452
I142027
s(I14
I5
I8
I20
I20161115
I0
tp1453
I140822
s(I14
I6
I4
I95
I20161121
I0
tp1454
I142455
s(I14
I6
I2
I11
I20161121
I0
tp1455
I142162
s(I14
I6
I1
I47
I20161121
I0
tp1456
I142096
s(I14
I5
I8
I12
I20161115
I0
tp1457
I140814
s(I14
I6
I8
I13
I20161121
I0
tp1458
I141961
s(I14
I5
I5
I82
I20161115
I0
tp1459
I141522
s(I14
I7
I2
I2
I20161122
I0
tp1460
I140100
s(I14
I7
I8
I70
I20161122
I0
tp1461
I141296
s(I14
I6
I4
I34
I20161121
I0
tp1462
I142394
s(I14
I5
I5
I57
I20161115
I0
tp1463
I141497
s(I14
I5
I5
I91
I20161115
I0
tp1464
I141531
s(I14
I7
I3
I97
I20161122
I0
tp1465
I140298
s(I14
I7
I7
I95
I20161122
I0
tp1466
I141217
s(I14
I7
I5
I27
I20161122
I0
tp1467
I140932
s(I14
I6
I4
I96
I20161121
I0
tp1468
I142456
s(I14
I5
I2
I41
I20161115
I0
tp1469
I140544
s(I14
I5
I8
I88
I20161115
I0
tp1470
I140890
s(I14
I6
I1
I77
I20161121
I0
tp1471
I142126
s(I14
I5
I1
I41
I20161115
I0
tp1472
I140446
s(I14
I5
I7
I16
I20161115
I0
tp1473
I140717
s(I14
I5
I6
I34
I20161115
I0
tp1474
I141575
s(I14
I5
I1
I75
I20161115
I0
tp1475
I140480
s(I14
I5
I7
I8
I20161115
I0
tp1476
I140709
s(I14
I5
I7
I54
I20161115
I0
tp1477
I140755
s(I14
I6
I1
I1
I20161121
I0
tp1478
I142050
s(I14
I5
I7
I41
I20161115
I0
tp1479
I140742
s(I14
I6
I1
I10
I20161121
I0
tp1480
I142059
s(I14
I7
I3
I6
I20161122
I0
tp1481
I140207
s(I14
I5
I4
I9
I20161115
I0
tp1482
I141348
s(I14
I5
I3
I33
I20161115
I0
tp1483
I140634
s(I14
I6
I3
I105
I20161121
I0
tp1484
I142357
s(I14
I7
I6
I73
I20161122
I0
tp1485
I141084
s(I14
I7
I4
I49
I20161122
I0
tp1486
I140351
s(I14
I5
I3
I57
I20161115
I0
tp1487
I140658
s(I14
I5
I1
I16
I20161115
I0
tp1488
I140421
s(I14
I6
I2
I94
I20161121
I0
tp1489
I142245
s(I14
I7
I6
I57
I20161122
I0
tp1490
I141068
s(I14
I5
I3
I96
I20161115
I0
tp1491
I140697
s(I14
I6
I6
I49
I20161121
I0
tp1492
I141792
s(I14
I6
I8
I94
I20161121
I0
tp1493
I142042
s(I14
I6
I1
I54
I20161121
I0
tp1494
I142103
s(I14
I6
I3
I96
I20161121
I0
tp1495
I142348
s(I14
I6
I2
I26
I20161121
I0
tp1496
I142177
s(I14
I5
I4
I40
I20161115
I0
tp1497
I141379
s(I14
I7
I5
I59
I20161122
I0
tp1498
I140964
s(I14
I5
I6
I87
I20161115
I0
tp1499
I141628
s(I14
I6
I8
I28
I20161121
I0
tp1500
I141976
s(I14
I7
I4
I17
I20161122
I0
tp1501
I140319
s(I14
I6
I3
I34
I20161121
I0
tp1502
I142286
s(I14
I7
I2
I49
I20161122
I0
tp1503
I140147
s(I14
I7
I8
I17
I20161122
I0
tp1504
I141243
s(I14
I6
I8
I44
I20161121
I0
tp1505
I141992
s(I14
I5
I4
I95
I20161115
I0
tp1506
I141434
s(I14
I6
I3
I18
I20161121
I0
tp1507
I142270
s(I14
I6
I2
I44
I20161121
I0
tp1508
I142195
s(I14
I5
I2
I13
I20161115
I0
tp1509
I140516
s(I14
I6
I8
I5
I20161121
I0
tp1510
I141953
s(I14
I6
I5
I86
I20161121
I0
tp1511
I141730
s(I14
I5
I3
I47
I20161115
I0
tp1512
I140648
s(I14
I6
I5
I11
I20161121
I0
tp1513
I141655
s(I14
I7
I3
I79
I20161122
I0
tp1514
I140280
s(I14
I7
I2
I13
I20161122
I0
tp1515
I140111
s(I14
I7
I5
I13
I20161122
I0
tp1516
I140918
s(I14
I7
I6
I110
I20161122
I0
tp1517
I141121
s(I14
I7
I4
I82
I20161122
I0
tp1518
I140384
s(I14
I7
I5
I16
I20161122
I0
tp1519
I140921
s(I14
I7
I6
I94
I20161122
I0
tp1520
I141105
s(I14
I6
I8
I27
I20161121
I0
tp1521
I141975
s(I14
I6
I6
I1
I20161121
I0
tp1522
I141744
s(I14
I7
I1
I23
I20161122
I0
tp1523
I140022
s(I14
I6
I2
I58
I20161121
I0
tp1524
I142209
s(I14
I6
I4
I18
I20161121
I0
tp1525
I142378
s(I14
I6
I5
I64
I20161121
I0
tp1526
I141708
s(I14
I6
I7
I22
I20161121
I0
tp1527
I141866
s(I14
I6
I1
I3
I20161121
I0
tp1528
I142052
s(I14
I7
I2
I55
I20161122
I0
tp1529
I140153
s(I14
I5
I5
I89
I20161115
I0
tp1530
I141529
s(I14
I6
I4
I86
I20161121
I0
tp1531
I142446
s(I14
I5
I5
I31
I20161115
I0
tp1532
I141471
s(I14
I6
I1
I83
I20161121
I0
tp1533
I142132
s(I14
I5
I5
I65
I20161115
I0
tp1534
I141505
s(I14
I7
I3
I48
I20161122
I0
tp1535
I140249
s(I14
I7
I2
I7
I20161122
I0
tp1536
I140105
s(I14
I5
I5
I7
I20161115
I0
tp1537
I141447
s(I14
I7
I8
I98
I20161122
I0
tp1538
I141324
s(I14
I5
I2
I73
I20161115
I0
tp1539
I140576
s(I14
I6
I7
I8
I20161121
I0
tp1540
I141852
s(I14
I5
I1
I73
I20161115
I0
tp1541
I140478
s(I14
I6
I1
I17
I20161121
I0
tp1542
I142066
s(I14
I5
I2
I33
I20161115
I0
tp1543
I140536
s(I14
I6
I3
I95
I20161121
I0
tp1544
I142347
s(I14
I5
I1
I81
I20161115
I0
tp1545
I140486
s(I14
I5
I7
I40
I20161115
I0
tp1546
I140741
s(I14
I6
I6
I55
I20161121
I0
tp1547
I141798
s(I14
I6
I8
I88
I20161121
I0
tp1548
I142036
s(I14
I5
I2
I64
I20161115
I0
tp1549
I140567
s(I14
I6
I2
I53
I20161121
I0
tp1550
I142204
s(I14
I7
I1
I44
I20161122
I0
tp1551
I140043
s(I14
I5
I7
I73
I20161115
I0
tp1552
I140774
s(I14
I6
I3
I3
I20161121
I0
tp1553
I142255
s(I14
I7
I5
I51
I20161122
I0
tp1554
I140956
s(I14
I5
I7
I33
I20161115
I0
tp1555
I140734
s(I14
I6
I4
I11
I20161121
I0
tp1556
I142371
s(I14
I5
I4
I74
I20161115
I0
tp1557
I141413
s(I14
I6
I8
I97
I20161121
I0
tp1558
I142045
s(I14
I5
I3
I59
I20161115
I0
tp1559
I140660
s(I14
I5
I4
I93
I20161115
I0
tp1560
I141432
s(I14
I5
I3
I19
I20161115
I0
tp1561
I140620
s(I14
I5
I3
I89
I20161115
I0
tp1562
I140690
s(I14
I6
I8
I46
I20161121
I0
tp1563
I141994
s(I14
I7
I3
I19
I20161122
I0
tp1564
I140220
s(I14
I5
I1
I31
I20161115
I0
tp1565
I140436
s(I14
I7
I6
I109
I20161122
I0
tp1566
I141120
s(I14
I7
I3
I87
I20161122
I0
tp1567
I140288
s(I14
I7
I2
I36
I20161122
I0
tp1568
I140134
s(I14
I7
I5
I10
I20161122
I0
tp1569
I140915
s(I14
I7
I8
I2
I20161122
I0
tp1570
I141228
s(I14
I7
I4
I89
I20161122
I0
tp1571
I140391
s(I14
I6
I5
I37
I20161121
I0
tp1572
I141681
s(I14
I7
I1
I75
I20161122
I0
tp1573
I140074
s(I14
I5
I1
I78
I20161115
I0
tp1574
I140483
s(I14
I7
I4
I9
I20161122
I0
tp1575
I140311
s(I14
I6
I6
I9
I20161121
I0
tp1576
I141752
s(I14
I6
I5
I97
I20161121
I0
tp1577
I141741
s(I14
I6
I2
I70
I20161121
I0
tp1578
I142221
s(I14
I5
I6
I100
I20161115
I0
tp1579
I141641
s(I14
I6
I4
I26
I20161121
I0
tp1580
I142386
s(I14
I5
I6
I75
I20161115
I0
tp1581
I141616
s(I14
I7
I7
I5
I20161122
I0
tp1582
I141127
s(I14
I6
I6
I75
I20161121
I0
tp1583
I141818
s(I14
I5
I5
I87
I20161115
I0
tp1584
I141527
s(I14
I5
I4
I68
I20161115
I0
tp1585
I141407
s(I14
I5
I4
I14
I20161115
I0
tp1586
I141353
s(I14
I6
I2
I8
I20161121
I0
tp1587
I142159
s(I14
I7
I2
I89
I20161122
I0
tp1588
I140187
s(I14
I7
I5
I32
I20161122
I0
tp1589
I140937
s(I14
I5
I3
I66
I20161115
I0
tp1590
I140667
s(I14
I7
I4
I3
I20161122
I0
tp1591
I140305
s(I14
I6
I4
I88
I20161121
I0
tp1592
I142448
s(I14
I6
I5
I87
I20161121
I0
tp1593
I141731
s(I14
I6
I2
I88
I20161121
I0
tp1594
I142239
s(I14
I6
I3
I58
I20161121
I0
tp1595
I142310
s(I14
I7
I2
I41
I20161122
I0
tp1596
I140139
s(I14
I7
I8
I105
I20161122
I0
tp1597
I141331
s(I14
I5
I4
I67
I20161115
I0
tp1598
I141406
s(I14
I6
I4
I8
I20161121
I0
tp1599
I142368
s(I14
I7
I7
I50
I20161122
I0
tp1600
I141172
s(I14
I7
I1
I70
I20161122
I0
tp1601
I140069
s(I14
I7
I5
I37
I20161122
I0
tp1602
I140942
s(I14
I6
I4
I70
I20161121
I0
tp1603
I142430
s(I14
I7
I6
I4
I20161122
I0
tp1604
I141015
s(I14
I6
I7
I66
I20161121
I0
tp1605
I141910
s(I14
I7
I3
I64
I20161122
I0
tp1606
I140265
s(I14
I7
I4
I42
I20161122
I0
tp1607
I140344
s(I14
I5
I5
I5
I20161115
I0
tp1608
I141445
s(I14
I6
I1
I39
I20161121
I0
tp1609
I142088
s(I14
I6
I1
I72
I20161121
I0
tp1610
I142121
s(I14
I7
I8
I83
I20161122
I0
tp1611
I141309
s(I14
I7
I1
I28
I20161122
I0
tp1612
I140027
s(I14
I7
I2
I10
I20161122
I0
tp1613
I140108
s(I14
I6
I3
I51
I20161121
I0
tp1614
I142303
s(I14
I7
I5
I67
I20161122
I0
tp1615
I140972
s(I14
I5
I2
I90
I20161115
I0
tp1616
I140593
s(I14
I5
I2
I28
I20161115
I0
tp1617
I140531
s(I14
I7
I2
I86
I20161122
I0
tp1618
I140184
s(I14
I7
I8
I10
I20161122
I0
tp1619
I141236
s(I14
I7
I4
I20
I20161122
I0
tp1620
I140322
s(I14
I6
I8
I52
I20161121
I0
tp1621
I142000
s(I14
I7
I7
I82
I20161122
I0
tp1622
I141204
s(I14
I6
I6
I54
I20161121
I0
tp1623
I141797
s(I14
I6
I7
I96
I20161121
I0
tp1624
I141940
s(I14
I6
I1
I90
I20161121
I0
tp1625
I142139
s(I14
I6
I3
I103
I20161121
I0
tp1626
I142355
s(I14
I5
I3
I51
I20161115
I0
tp1627
I140652
s(I14
I5
I8
I64
I20161115
I0
tp1628
I140866
s(I14
I7
I1
I73
I20161122
I0
tp1629
I140072
s(I14
I6
I3
I87
I20161121
I0
tp1630
I142339
s(I14
I5
I7
I55
I20161115
I0
tp1631
I140756
s(I14
I5
I5
I26
I20161115
I0
tp1632
I141466
s(I14
I5
I8
I72
I20161115
I0
tp1633
I140874
s(I14
I6
I5
I19
I20161121
I0
tp1634
I141663
s(I14
I5
I7
I85
I20161115
I0
tp1635
I140786
s(I14
I5
I5
I2
I20161115
I0
tp1636
I141442
s(I14
I5
I5
I60
I20161115
I0
tp1637
I141500
s(I14
I6
I3
I17
I20161121
I0
tp1638
I142269
s(I14
I7
I5
I86
I20161122
I0
tp1639
I140991
s(I14
I7
I7
I24
I20161122
I0
tp1640
I141146
s(I14
I6
I5
I81
I20161121
I0
tp1641
I141725
s(I14
I5
I1
I10
I20161115
I0
tp1642
I140415
s(I14
I7
I6
I75
I20161122
I0
tp1643
I141086
s(I14
I6
I7
I39
I20161121
I0
tp1644
I141883
s(I14
I5
I7
I25
I20161115
I0
tp1645
I140726
s(I14
I7
I8
I63
I20161122
I0
tp1646
I141289
s(I14
I5
I1
I43
I20161115
I0
tp1647
I140448
s(I14
I5
I2
I7
I20161115
I0
tp1648
I140510
s(I14
I7
I6
I59
I20161122
I0
tp1649
I141070
s(I14
I5
I1
I51
I20161115
I0
tp1650
I140456
s(I14
I7
I1
I47
I20161122
I0
tp1651
I140046
s(I14
I5
I7
I14
I20161115
I0
tp1652
I140715
s(I14
I7
I4
I81
I20161122
I0
tp1653
I140383
s(I14
I5
I6
I8
I20161115
I0
tp1654
I141549
s(I14
I6
I7
I35
I20161121
I0
tp1655
I141879
s(I14
I7
I4
I52
I20161122
I0
tp1656
I140354
s(I14
I5
I4
I36
I20161115
I0
tp1657
I141375
s(I14
I5
I4
I98
I20161115
I0
tp1658
I141437
s(I14
I5
I3
I92
I20161115
I0
tp1659
I140693
s(I14
I5
I4
I60
I20161115
I0
tp1660
I141399
s(I14
I5
I2
I86
I20161115
I0
tp1661
I140589
s(I14
I5
I3
I22
I20161115
I0
tp1662
I140623
s(I14
I7
I7
I33
I20161122
I0
tp1663
I141155
s(I14
I5
I3
I85
I20161115
I0
tp1664
I140686
s(I14
I7
I4
I39
I20161122
I0
tp1665
I140341
s(I14
I7
I8
I28
I20161122
I0
tp1666
I141254
s(I14
I7
I4
I90
I20161122
I0
tp1667
I140392
s(I14
I7
I7
I30
I20161122
I0
tp1668
I141152
s(I14
I7
I7
I39
I20161122
I0
tp1669
I141161
s(I14
I7
I1
I26
I20161122
I0
tp1670
I140025
s(I14
I6
I7
I1
I20161121
I0
tp1671
I141845
s(I14
I6
I4
I10
I20161121
I0
tp1672
I142370
s(I14
I7
I8
I76
I20161122
I0
tp1673
I141302
s(I14
I7
I5
I65
I20161122
I0
tp1674
I140970
s(I14
I7
I4
I27
I20161122
I0
tp1675
I140329
s(I14
I7
I7
I23
I20161122
I0
tp1676
I141145
s(I14
I6
I6
I46
I20161121
I0
tp1677
I141789
s(I14
I7
I6
I88
I20161122
I0
tp1678
I141099
s(I14
I6
I7
I67
I20161121
I0
tp1679
I141911
s(I14
I6
I2
I65
I20161121
I0
tp1680
I142216
s(I14
I5
I5
I48
I20161115
I0
tp1681
I141488
s(I14
I7
I3
I29
I20161122
I0
tp1682
I140230
s(I14
I5
I6
I22
I20161115
I0
tp1683
I141563
s(I14
I6
I4
I1
I20161121
I0
tp1684
I142361
s(I14
I5
I5
I24
I20161115
I0
tp1685
I141464
s(I14
I5
I4
I46
I20161115
I0
tp1686
I141385
s(I14
I5
I6
I52
I20161115
I0
tp1687
I141593
s(I14
I7
I2
I102
I20161122
I0
tp1688
I140200
s(I14
I7
I5
I18
I20161122
I0
tp1689
I140923
s(I14
I6
I4
I94
I20161121
I0
tp1690
I142454
s(I14
I6
I4
I49
I20161121
I0
tp1691
I142409
s(I14
I6
I6
I24
I20161121
I0
tp1692
I141767
s(I14
I6
I7
I74
I20161121
I0
tp1693
I141918
s(I14
I6
I8
I21
I20161121
I0
tp1694
I141969
s(I14
I6
I1
I96
I20161121
I0
tp1695
I142145
s(I14
I6
I3
I25
I20161121
I0
tp1696
I142277
s(I14
I7
I4
I33
I20161122
I0
tp1697
I140335
s(I14
I7
I4
I71
I20161122
I0
tp1698
I140373
s(I14
I5
I7
I94
I20161115
I0
tp1699
I140795
s(I14
I7
I1
I57
I20161122
I0
tp1700
I140056
s(I14
I6
I4
I36
I20161121
I0
tp1701
I142396
s(I14
I6
I1
I46
I20161121
I0
tp1702
I142095
s(I14
I6
I3
I72
I20161121
I0
tp1703
I142324
s(I14
I5
I8
I95
I20161115
I0
tp1704
I140897
s(I14
I7
I1
I36
I20161122
I0
tp1705
I140035
s(I14
I5
I7
I87
I20161115
I0
tp1706
I140788
s(I14
I6
I3
I11
I20161121
I0
tp1707
I142263
s(I14
I5
I7
I79
I20161115
I0
tp1708
I140780
s(I14
I5
I4
I58
I20161115
I0
tp1709
I141397
s(I14
I5
I5
I34
I20161115
I0
tp1710
I141474
s(I14
I7
I8
I47
I20161122
I0
tp1711
I141273
s(I14
I6
I8
I61
I20161121
I0
tp1712
I142009
s(I14
I5
I1
I49
I20161115
I0
tp1713
I140454
s(I14
I5
I2
I25
I20161115
I0
tp1714
I140528
s(I14
I5
I2
I39
I20161115
I0
tp1715
I140542
s(I14
I5
I1
I25
I20161115
I0
tp1716
I140430
s(I14
I5
I1
I83
I20161115
I0
tp1717
I140488
s(I14
I5
I2
I63
I20161115
I0
tp1718
I140566
s(I14
I7
I5
I29
I20161122
I0
tp1719
I140934
s(I14
I7
I3
I82
I20161122
I0
tp1720
I140283
s(I14
I7
I6
I31
I20161122
I0
tp1721
I141042
s(I14
I7
I6
I54
I20161122
I0
tp1722
I141065
s(I14
I6
I5
I42
I20161121
I0
tp1723
I141686
s(I14
I7
I3
I34
I20161122
I0
tp1724
I140235
s(I14
I7
I7
I16
I20161122
I0
tp1725
I141138
s(I14
I7
I6
I83
I20161122
I0
tp1726
I141094
s(I14
I6
I7
I47
I20161121
I0
tp1727
I141891
s(I14
I5
I3
I17
I20161115
I0
tp1728
I140618
s(I14
I7
I1
I7
I20161122
I0
tp1729
I140006
s(I14
I5
I8
I24
I20161115
I0
tp1730
I140826
s(I14
I5
I7
I80
I20161115
I0
tp1731
I140781
s(I14
I7
I2
I28
I20161122
I0
tp1732
I140126
s(I14
I6
I8
I95
I20161121
I0
tp1733
I142043
s(I14
I6
I5
I24
I20161121
I0
tp1734
I141668
s(I14
I6
I1
I75
I20161121
I0
tp1735
I142124
s(I14
I6
I2
I27
I20161121
I0
tp1736
I142178
s(I14
I7
I4
I11
I20161122
I0
tp1737
I140313
s(I14
I5
I4
I8
I20161115
I0
tp1738
I141347
s(I14
I6
I4
I51
I20161121
I0
tp1739
I142411
s(I14
I7
I7
I74
I20161122
I0
tp1740
I141196
s(I14
I7
I8
I56
I20161122
I0
tp1741
I141282
s(I14
I7
I4
I79
I20161122
I0
tp1742
I140381
s(I14
I7
I7
I58
I20161122
I0
tp1743
I141180
s(I14
I5
I1
I72
I20161115
I0
tp1744
I140477
s(I14
I7
I6
I9
I20161122
I0
tp1745
I141020
s(I14
I7
I1
I49
I20161122
I0
tp1746
I140048
s(I14
I5
I1
I93
I20161115
I0
tp1747
I140498
s(I14
I6
I2
I82
I20161121
I0
tp1748
I142233
s(I14
I5
I5
I22
I20161115
I0
tp1749
I141462
s(I14
I6
I2
I45
I20161121
I0
tp1750
I142196
s(I14
I5
I6
I54
I20161115
I0
tp1751
I141595
s(I14
I5
I5
I56
I20161115
I0
tp1752
I141496
s(I14
I7
I6
I60
I20161122
I0
tp1753
I141071
s(I14
I5
I6
I30
I20161115
I0
tp1754
I141571
s(I14
I5
I4
I70
I20161115
I0
tp1755
I141409
s(I14
I7
I3
I65
I20161122
I0
tp1756
I140266
s(I14
I7
I7
I63
I20161122
I0
tp1757
I141185
s(I14
I5
I1
I15
I20161115
I0
tp1758
I140420
s(I14
I5
I4
I94
I20161115
I0
tp1759
I141433
s(I14
I6
I6
I76
I20161121
I0
tp1760
I141819
s(I14
I6
I1
I52
I20161121
I0
tp1761
I142101
s(I14
I7
I5
I78
I20161122
I0
tp1762
I140983
s(I14
I5
I2
I3
I20161115
I0
tp1763
I140506
s(I14
I5
I3
I45
I20161115
I0
tp1764
I140646
s(I14
I5
I7
I10
I20161115
I0
tp1765
I140711
s(I14
I7
I3
I22
I20161122
I0
tp1766
I140223
s(I14
I7
I4
I44
I20161122
I0
tp1767
I140346
s(I14
I6
I4
I25
I20161121
I0
tp1768
I142385
s(I14
I6
I2
I33
I20161121
I0
tp1769
I142184
s(I14
I7
I4
I28
I20161122
I0
tp1770
I140330
s(I14
I7
I7
I89
I20161122
I0
tp1771
I141211
s(I14
I7
I2
I75
I20161122
I0
tp1772
I140173
s(I14
I7
I6
I41
I20161122
I0
tp1773
I141052
s(I14
I7
I1
I17
I20161122
I0
tp1774
I140016
s(I14
I6
I6
I33
I20161121
I0
tp1775
I141776
s(I14
I5
I5
I81
I20161115
I0
tp1776
I141521
s(I14
I6
I1
I22
I20161121
I0
tp1777
I142071
s(I14
I6
I3
I64
I20161121
I0
tp1778
I142316
s(I14
I5
I2
I57
I20161115
I0
tp1779
I140560
s(I14
I5
I1
I57
I20161115
I0
tp1780
I140462
s(I14
I5
I2
I17
I20161115
I0
tp1781
I140520
s(I14
I7
I1
I2
I20161122
I0
tp1782
I140001
s(I14
I6
I8
I60
I20161121
I0
tp1783
I142008
s(I14
I5
I5
I36
I20161115
I0
tp1784
I141476
s(I14
I5
I8
I69
I20161115
I0
tp1785
I140871
s(I14
I6
I3
I2
I20161121
I0
tp1786
I142254
s(I14
I7
I8
I113
I20161122
I0
tp1787
I141339
s(I14
I5
I2
I72
I20161115
I0
tp1788
I140575
s(I14
I7
I6
I67
I20161122
I0
tp1789
I141078
s(I14
I6
I4
I16
I20161121
I0
tp1790
I142376
s(I14
I6
I5
I70
I20161121
I0
tp1791
I141714
s(I14
I5
I7
I49
I20161115
I0
tp1792
I140750
s(I14
I7
I7
I76
I20161122
I0
tp1793
I141198
s(I14
I5
I8
I92
I20161115
I0
tp1794
I140894
s(I14
I6
I7
I91
I20161121
I0
tp1795
I141935
s(I14
I5
I7
I20
I20161115
I0
tp1796
I140721
s(I14
I6
I1
I81
I20161121
I0
tp1797
I142130
s(I14
I5
I3
I9
I20161115
I0
tp1798
I140610
s(I14
I7
I3
I5
I20161122
I0
tp1799
I140206
s(I14
I7
I3
I47
I20161122
I0
tp1800
I140248
s(I14
I7
I6
I78
I20161122
I0
tp1801
I141089
s(I14
I6
I1
I31
I20161121
I0
tp1802
I142080
s(I14
I6
I4
I44
I20161121
I0
tp1803
I142404
s(I14
I7
I6
I62
I20161122
I0
tp1804
I141073
s(I14
I6
I8
I59
I20161121
I0
tp1805
I142007
s(I14
I5
I3
I99
I20161115
I0
tp1806
I140700
s(I14
I5
I4
I5
I20161115
I0
tp1807
I141344
s(I14
I6
I2
I55
I20161121
I0
tp1808
I142206
s(I14
I5
I1
I86
I20161115
I0
tp1809
I140491
s(I14
I5
I1
I28
I20161115
I0
tp1810
I140433
s(I14
I6
I4
I50
I20161121
I0
tp1811
I142410
s(I14
I6
I5
I96
I20161121
I0
tp1812
I141740
s(I14
I6
I7
I54
I20161121
I0
tp1813
I141898
s(I14
I6
I1
I99
I20161121
I0
tp1814
I142148
s(I14
I7
I2
I23
I20161122
I0
tp1815
I140121
s(I14
I7
I7
I47
I20161122
I0
tp1816
I141169
s(I14
I7
I8
I18
I20161122
I0
tp1817
I141244
s(I14
I7
I6
I96
I20161122
I0
tp1818
I141107
s(I14
I5
I6
I61
I20161115
I0
tp1819
I141602
s(I14
I5
I4
I92
I20161115
I0
tp1820
I141431
s(I14
I7
I3
I16
I20161122
I0
tp1821
I140217
s(I14
I7
I8
I66
I20161122
I0
tp1822
I141292
s(I14
I7
I2
I83
I20161122
I0
tp1823
I140181
s(I14
I5
I4
I62
I20161115
I0
tp1824
I141401
s(I14
I7
I6
I80
I20161122
I0
tp1825
I141091
s(I14
I5
I8
I91
I20161115
I0
tp1826
I140893
s(I14
I5
I3
I50
I20161115
I0
tp1827
I140651
s(I14
I6
I7
I40
I20161121
I0
tp1828
I141884
s(I14
I5
I2
I35
I20161115
I0
tp1829
I140538
s(I14
I7
I3
I37
I20161122
I0
tp1830
I140238
s(I14
I5
I3
I7
I20161115
I0
tp1831
I140608
s(I14
I6
I4
I9
I20161121
I0
tp1832
I142369
s(I14
I5
I2
I59
I20161115
I0
tp1833
I140562
s(I14
I6
I5
I59
I20161121
I0
tp1834
I141703
s(I14
I6
I3
I70
I20161121
I0
tp1835
I142322
s(I14
I6
I1
I53
I20161121
I0
tp1836
I142102
s(I14
I7
I5
I19
I20161122
I0
tp1837
I140924
s(I14
I6
I4
I77
I20161121
I0
tp1838
I142437
s(I14
I6
I6
I11
I20161121
I0
tp1839
I141754
s(I14
I6
I2
I72
I20161121
I0
tp1840
I142223
s(I14
I7
I3
I58
I20161122
I0
tp1841
I140259
s(I14
I7
I7
I8
I20161122
I0
tp1842
I141130
s(I14
I5
I7
I100
I20161115
I0
tp1843
I140801
s(I14
I5
I8
I4
I20161115
I0
tp1844
I140806
s(I14
I6
I8
I78
I20161121
I0
tp1845
I142026
s(I14
I6
I6
I85
I20161121
I0
tp1846
I141828
s(I14
I5
I7
I92
I20161115
I0
tp1847
I140793
s(I14
I5
I3
I26
I20161115
I0
tp1848
I140627
s(I14
I6
I2
I10
I20161121
I0
tp1849
I142161
s(I14
I7
I2
I52
I20161122
I0
tp1850
I140150
s(I14
I7
I6
I77
I20161122
I0
tp1851
I141088
s(I14
I5
I5
I84
I20161115
I0
tp1852
I141524
s(I14
I5
I6
I20
I20161115
I0
tp1853
I141561
s(I14
I6
I8
I10
I20161121
I0
tp1854
I141958
s(I14
I7
I3
I55
I20161122
I0
tp1855
I140256
s(I14
I6
I3
I52
I20161121
I0
tp1856
I142304
s(I14
I7
I2
I4
I20161122
I0
tp1857
I140102
s(I14
I7
I5
I103
I20161122
I0
tp1858
I141008
s(I14
I7
I4
I57
I20161122
I0
tp1859
I140359
s(I14
I5
I2
I74
I20161115
I0
tp1860
I140577
s(I14
I5
I1
I76
I20161115
I0
tp1861
I140481
s(I14
I5
I2
I34
I20161115
I0
tp1862
I140537
s(I14
I5
I8
I93
I20161115
I0
tp1863
I140895
s(I14
I7
I8
I45
I20161122
I0
tp1864
I141271
s(I14
I5
I1
I84
I20161115
I0
tp1865
I140489
s(I14
I5
I7
I43
I20161115
I0
tp1866
I140744
s(I14
I6
I6
I2
I20161121
I0
tp1867
I141745
s(I14
I7
I1
I76
I20161122
I0
tp1868
I140075
s(I14
I6
I4
I58
I20161121
I0
tp1869
I142418
s(I14
I7
I1
I37
I20161122
I0
tp1870
I140036
s(I14
I5
I2
I37
I20161115
I0
tp1871
I140540
s(I14
I6
I2
I5
I20161121
I0
tp1872
I142156
s(I14
I7
I3
I90
I20161122
I0
tp1873
I140291
s(I14
I7
I8
I84
I20161122
I0
tp1874
I141310
s(I14
I7
I2
I57
I20161122
I0
tp1875
I140155
s(I14
I6
I5
I18
I20161121
I0
tp1876
I141662
s(I14
I5
I8
I33
I20161115
I0
tp1877
I140835
s(I14
I6
I3
I99
I20161121
I0
tp1878
I142351
s(I14
I7
I2
I9
I20161122
I0
tp1879
I140107
s(I14
I6
I2
I36
I20161121
I0
tp1880
I142187
s(I14
I7
I8
I73
I20161122
I0
tp1881
I141299
s(I14
I7
I5
I92
I20161122
I0
tp1882
I140997
s(I14
I7
I6
I98
I20161122
I0
tp1883
I141109
s(I14
I6
I7
I32
I20161121
I0
tp1884
I141876
s(I14
I7
I5
I5
I20161122
I0
tp1885
I140910
s(I14
I6
I7
I98
I20161121
I0
tp1886
I141942
s(I14
I7
I3
I32
I20161122
I0
tp1887
I140233
s(I14
I6
I1
I55
I20161121
I0
tp1888
I142104
s(I14
I6
I3
I97
I20161121
I0
tp1889
I142349
s(I14
I7
I2
I99
I20161122
I0
tp1890
I140197
s(I14
I7
I6
I81
I20161122
I0
tp1891
I141092
s(I14
I7
I4
I10
I20161122
I0
tp1892
I140312
s(I14
I6
I5
I76
I20161121
I0
tp1893
I141720
s(I14
I6
I7
I18
I20161121
I0
tp1894
I141862
s(I14
I6
I1
I7
I20161121
I0
tp1895
I142056
s(I14
I7
I3
I100
I20161122
I0
tp1896
I140301
s(I14
I6
I3
I81
I20161121
I0
tp1897
I142333
s(I14
I7
I6
I1
I20161122
I0
tp1898
I141012
s(I14
I7
I8
I62
I20161122
I0
tp1899
I141288
s(I14
I6
I6
I57
I20161121
I0
tp1900
I141800
s(I14
I5
I8
I59
I20161115
I0
tp1901
I140861
s(I14
I5
I6
I76
I20161115
I0
tp1902
I141617
s(I14
I6
I7
I84
I20161121
I0
tp1903
I141928
s(I14
I7
I1
I60
I20161122
I0
tp1904
I140059
s(I14
I6
I3
I19
I20161121
I0
tp1905
I142271
s(I14
I7
I5
I35
I20161122
I0
tp1906
I140940
s(I14
I6
I8
I4
I20161121
I0
tp1907
I141952
s(I14
I5
I7
I67
I20161115
I0
tp1908
I140768
s(I14
I7
I3
I73
I20161122
I0
tp1909
I140274
s(I14
I7
I2
I15
I20161122
I0
tp1910
I140113
s(I14
I7
I2
I54
I20161122
I0
tp1911
I140152
s(I14
I5
I8
I86
I20161115
I0
tp1912
I140888
s(I14
I7
I8
I106
I20161122
I0
tp1913
I141332
s(I14
I5
I4
I64
I20161115
I0
tp1914
I141403
s(I14
I6
I8
I84
I20161121
I0
tp1915
I142032
s(I14
I6
I3
I106
I20161121
I0
tp1916
I142358
s(I14
I6
I3
I71
I20161121
I0
tp1917
I142323
s(I14
I6
I6
I47
I20161121
I0
tp1918
I141790
s(I14
I6
I8
I26
I20161121
I0
tp1919
I141974
s(I14
I5
I1
I6
I20161115
I0
tp1920
I140411
s(I14
I7
I3
I71
I20161122
I0
tp1921
I140272
s(I14
I6
I3
I36
I20161121
I0
tp1922
I142288
s(I14
I5
I1
I39
I20161115
I0
tp1923
I140444
s(I14
I6
I5
I51
I20161121
I0
tp1924
I141695
s(I14
I5
I6
I28
I20161115
I0
tp1925
I141569
s(I14
I7
I8
I92
I20161122
I0
tp1926
I141318
s(I14
I7
I2
I80
I20161122
I0
tp1927
I140178
s(I14
I7
I5
I24
I20161122
I0
tp1928
I140929
s(I14
I7
I6
I38
I20161122
I0
tp1929
I141049
s(I14
I7
I5
I54
I20161122
I0
tp1930
I140959
s(I14
I6
I6
I25
I20161121
I0
tp1931
I141768
s(I14
I6
I8
I38
I20161121
I0
tp1932
I141986
s(I14
I5
I4
I32
I20161115
I0
tp1933
I141371
s(I14
I7
I1
I31
I20161122
I0
tp1934
I140030
s(I14
I5
I2
I66
I20161115
I0
tp1935
I140569
s(I14
I5
I2
I4
I20161115
I0
tp1936
I140507
s(I14
I6
I4
I42
I20161121
I0
tp1937
I142402
s(I14
I7
I4
I93
I20161122
I0
tp1938
I140395
s(I14
I6
I6
I93
I20161121
I0
tp1939
I141836
s(I14
I7
I1
I79
I20161122
I0
tp1940
I140078
s(I14
I6
I5
I8
I20161121
I0
tp1941
I141652
s(I14
I7
I7
I81
I20161122
I0
tp1942
I141203
s(I14
I5
I8
I47
I20161115
I0
tp1943
I140849
s(I14
I6
I2
I52
I20161121
I0
tp1944
I142203
s(I14
I5
I8
I71
I20161115
I0
tp1945
I140873
s(I14
I5
I8
I1
I20161115
I0
tp1946
I140803
s(I14
I6
I5
I78
I20161121
I0
tp1947
I141722
s(I14
I6
I7
I16
I20161121
I0
tp1948
I141860
s(I14
I5
I7
I95
I20161115
I0
tp1949
I140796
s(I14
I5
I8
I38
I20161115
I0
tp1950
I140840
s(I14
I7
I2
I101
I20161122
I0
tp1951
I140199
s(I14
I7
I8
I37
I20161122
I0
tp1952
I141263
s(I14
I6
I4
I92
I20161121
I0
tp1953
I142452
s(I14
I6
I6
I26
I20161121
I0
tp1954
I141769
s(I14
I6
I7
I76
I20161121
I0
tp1955
I141920
s(I14
I5
I5
I59
I20161115
I0
tp1956
I141499
s(I14
I7
I5
I56
I20161122
I0
tp1957
I140961
s(I14
I7
I5
I81
I20161122
I0
tp1958
I140986
s(I14
I7
I4
I58
I20161122
I0
tp1959
I140360
s(I14
I7
I5
I33
I20161122
I0
tp1960
I140938
s(I14
I7
I1
I99
I20161122
I0
tp1961
I140098
s(I14
I6
I6
I94
I20161121
I0
tp1962
I141837
s(I14
I7
I8
I111
I20161122
I0
tp1963
I141337
s(I14
I6
I3
I5
I20161121
I0
tp1964
I142257
s(I14
I6
I4
I78
I20161121
I0
tp1965
I142438
s(I14
I6
I7
I46
I20161121
I0
tp1966
I141890
s(I14
I6
I6
I8
I20161121
I0
tp1967
I141751
s(I14
I5
I4
I41
I20161115
I0
tp1968
I141380
s(I14
I7
I3
I72
I20161122
I0
tp1969
I140273
s(I14
I7
I2
I70
I20161122
I0
tp1970
I140168
s(I14
I7
I8
I26
I20161122
I0
tp1971
I141252
s(I14
I6
I5
I61
I20161121
I0
tp1972
I141705
s(I14
I6
I6
I56
I20161121
I0
tp1973
I141799
s(I14
I7
I3
I51
I20161122
I0
tp1974
I140252
s(I14
I7
I3
I24
I20161122
I0
tp1975
I140225
s(I14
I5
I6
I49
I20161115
I0
tp1976
I141590
s(I14
I6
I1
I64
I20161121
I0
tp1977
I142113
s(I14
I7
I2
I91
I20161122
I0
tp1978
I140189
s(I14
I7
I4
I1
I20161122
I0
tp1979
I140303
s(I14
I6
I8
I37
I20161121
I0
tp1980
I141985
s(I14
I5
I3
I88
I20161115
I0
tp1981
I140689
s(I14
I7
I1
I89
I20161122
I0
tp1982
I140088
s(I14
I7
I2
I18
I20161122
I0
tp1983
I140116
s(I14
I6
I1
I14
I20161121
I0
tp1984
I142063
s(I14
I6
I3
I59
I20161121
I0
tp1985
I142311
s(I14
I6
I5
I35
I20161121
I0
tp1986
I141679
s(I14
I6
I6
I83
I20161121
I0
tp1987
I141826
s(I14
I6
I1
I94
I20161121
I0
tp1988
I142143
s(I14
I6
I3
I107
I20161121
I0
tp1989
I142359
s(I14
I7
I5
I43
I20161122
I0
tp1990
I140948
s(I14
I5
I1
I13
I20161115
I0
tp1991
I140418
s(I14
I5
I5
I30
I20161115
I0
tp1992
I141470
s(I14
I6
I6
I3
I20161121
I0
tp1993
I141746
s(I14
I5
I5
I28
I20161115
I0
tp1994
I141468
s(I14
I6
I7
I49
I20161121
I0
tp1995
I141893
s(I14
I7
I2
I33
I20161122
I0
tp1996
I140131
s(I14
I7
I8
I97
I20161122
I0
tp1997
I141323
s(I14
I7
I8
I15
I20161122
I0
tp1998
I141241
s(I14
I6
I3
I37
I20161121
I0
tp1999
I142289
s(I14
I6
I6
I77
I20161121
I0
tp2000
I141820
s(I14
I6
I8
I93
I20161121
I0
tp2001
I142041
s(I14
I5
I2
I30
I20161115
I0
tp2002
I140533
s(I14
I6
I2
I42
I20161121
I0
tp2003
I142193
s(I14
I5
I3
I5
I20161115
I0
tp2004
I140606
s(I14
I6
I8
I2
I20161121
I0
tp2005
I141950
s(I14
I7
I3
I63
I20161122
I0
tp2006
I140264
s(I14
I5
I3
I29
I20161115
I0
tp2007
I140630
s(I14
I5
I5
I86
I20161115
I0
tp2008
I141526
s(I14
I5
I6
I18
I20161115
I0
tp2009
I141559
s(I14
I5
I4
I15
I20161115
I0
tp2010
I141354
s(I14
I7
I4
I34
I20161122
I0
tp2011
I140336
s(I14
I7
I4
I72
I20161122
I0
tp2012
I140374
s(I14
I5
I6
I6
I20161115
I0
tp2013
I141547
s(I14
I5
I8
I39
I20161115
I0
tp2014
I140841
s(I14
I5
I5
I58
I20161115
I0
tp2015
I141498
s(I14
I7
I6
I51
I20161122
I0
tp2016
I141062
s(I14
I5
I8
I6
I20161115
I0
tp2017
I140808
s(I14
I7
I1
I39
I20161122
I0
tp2018
I140038
s(I14
I5
I7
I82
I20161115
I0
tp2019
I140783
s(I14
I5
I8
I62
I20161115
I0
tp2020
I140864
s(I14
I5
I7
I74
I20161115
I0
tp2021
I140775
s(I14
I7
I1
I84
I20161122
I0
tp2022
I140083
s(I14
I6
I7
I17
I20161121
I0
tp2023
I141861
s(I14
I7
I2
I65
I20161122
I0
tp2024
I140163
s(I14
I5
I5
I10
I20161115
I0
tp2025
I141450
s(I14
I7
I8
I40
I20161122
I0
tp2026
I141266
s(I14
I7
I7
I42
I20161122
I0
tp2027
I141164
s(I14
I6
I6
I62
I20161121
I0
tp2028
I141805
s(I14
I5
I2
I1
I20161115
I0
tp2029
I140504
s(I14
I6
I2
I75
I20161121
I0
tp2030
I142226
s(I14
I7
I8
I24
I20161122
I0
tp2031
I141250
s(I14
I7
I5
I84
I20161122
I0
tp2032
I140989
s(I14
I7
I4
I47
I20161122
I0
tp2033
I140349
s(I14
I7
I7
I26
I20161122
I0
tp2034
I141148
s(I14
I5
I2
I32
I20161115
I0
tp2035
I140535
s(I14
I7
I1
I81
I20161122
I0
tp2036
I140080
s(I14
I5
I2
I56
I20161115
I0
tp2037
I140559
s(I14
I5
I1
I59
I20161115
I0
tp2038
I140464
s(I14
I5
I7
I6
I20161115
I0
tp2039
I140707
s(I14
I7
I4
I66
I20161122
I0
tp2040
I140368
s(I14
I6
I4
I4
I20161121
I0
tp2041
I142364
s(I14
I5
I6
I16
I20161115
I0
tp2042
I141557
s(I14
I7
I6
I28
I20161122
I0
tp2043
I141039
s(I14
I6
I7
I90
I20161121
I0
tp2044
I141934
s(I14
I6
I1
I80
I20161121
I0
tp2045
I142129
s(I14
I7
I8
I75
I20161122
I0
tp2046
I141301
s(I14
I7
I5
I94
I20161122
I0
tp2047
I140999
s(I14
I7
I7
I31
I20161122
I0
tp2048
I141153
s(I14
I6
I1
I20
I20161121
I0
tp2049
I142069
s(I14
I5
I8
I5
I20161115
I0
tp2050
I140807
s(I14
I7
I5
I46
I20161122
I0
tp2051
I140951
s(I14
I6
I3
I45
I20161121
I0
tp2052
I142297
s(I14
I6
I5
I25
I20161121
I0
tp2053
I141669
s(I14
I6
I6
I69
I20161121
I0
tp2054
I141812
s(I14
I5
I6
I98
I20161115
I0
tp2055
I141639
s(I14
I7
I4
I12
I20161122
I0
tp2056
I140314
s(I14
I5
I4
I13
I20161115
I0
tp2057
I141352
s(I14
I7
I7
I73
I20161122
I0
tp2058
I141195
s(I14
I7
I2
I62
I20161122
I0
tp2059
I140160
s(I14
I6
I1
I34
I20161121
I0
tp2060
I142083
s(I14
I6
I2
I97
I20161121
I0
tp2061
I142248
s(I14
I7
I7
I57
I20161122
I0
tp2062
I141179
s(I14
I6
I8
I43
I20161121
I0
tp2063
I141991
s(I14
I5
I1
I80
I20161115
I0
tp2064
I140485
s(I14
I5
I6
I43
I20161115
I0
tp2065
I141584
s(I14
I5
I5
I55
I20161115
I0
tp2066
I141495
s(I14
I5
I6
I19
I20161115
I0
tp2067
I141560
s(I14
I5
I3
I31
I20161115
I0
tp2068
I140632
s(I14
I7
I1
I34
I20161122
I0
tp2069
I140033
s(I14
I5
I6
I50
I20161115
I0
tp2070
I141591
s(I14
I7
I8
I68
I20161122
I0
tp2071
I141294
s(I14
I5
I7
I24
I20161115
I0
tp2072
I140725
s(I14
I7
I5
I73
I20161122
I0
tp2073
I140978
s(I14
I5
I4
I99
I20161115
I0
tp2074
I141438
s(I14
I6
I3
I98
I20161121
I0
tp2075
I142350
s(I14
I7
I6
I35
I20161122
I0
tp2076
I141046
s(I14
I6
I7
I63
I20161121
I0
tp2077
I141907
s(I14
I6
I7
I75
I20161121
I0
tp2078
I141919
s(I14
I6
I2
I73
I20161121
I0
tp2079
I142224
s(I14
I6
I1
I97
I20161121
I0
tp2080
I142146
s(I14
I7
I7
I44
I20161122
I0
tp2081
I141166
s(I14
I5
I2
I77
I20161115
I0
tp2082
I140580
s(I14
I5
I3
I11
I20161115
I0
tp2083
I140612
s(I14
I7
I6
I103
I20161122
I0
tp2084
I141114
s(I14
I6
I5
I88
I20161121
I0
tp2085
I141732
s(I14
I6
I6
I32
I20161121
I0
tp2086
I141775
s(I14
I7
I6
I46
I20161122
I0
tp2087
I141057
s(I14
I6
I8
I11
I20161121
I0
tp2088
I141959
s(I14
I7
I4
I95
I20161122
I0
tp2089
I140397
s(I14
I7
I6
I25
I20161122
I0
tp2090
I141036
s(I14
I5
I6
I97
I20161115
I0
tp2091
I141638
s(I14
I7
I1
I65
I20161122
I0
tp2092
I140064
s(I14
I6
I2
I23
I20161121
I0
tp2093
I142174
s(I14
I5
I2
I58
I20161115
I0
tp2094
I140561
s(I14
I6
I7
I68
I20161121
I0
tp2095
I141912
s(I14
I7
I1
I5
I20161122
I0
tp2096
I140004
s(I14
I5
I2
I88
I20161115
I0
tp2097
I140591
s(I14
I5
I5
I85
I20161115
I0
tp2098
I141525
s(I14
I6
I1
I67
I20161121
I0
tp2099
I142116
s(I14
I7
I3
I95
I20161122
I0
tp2100
I140296
s(I14
I7
I5
I105
I20161122
I0
tp2101
I141010
s(I14
I5
I5
I62
I20161115
I0
tp2102
I141502
s(I14
I7
I7
I15
I20161122
I0
tp2103
I141137
s(I14
I7
I6
I64
I20161122
I0
tp2104
I141075
s(I14
I6
I8
I76
I20161121
I0
tp2105
I142024
s(I14
I6
I1
I36
I20161121
I0
tp2106
I142085
s(I14
I7
I8
I39
I20161122
I0
tp2107
I141265
s(I14
I5
I4
I38
I20161115
I0
tp2108
I141377
s(I14
I5
I8
I3
I20161115
I0
tp2109
I140805
s(I14
I7
I7
I34
I20161122
I0
tp2110
I141156
s(I14
I7
I7
I75
I20161122
I0
tp2111
I141197
s(I14
I7
I6
I48
I20161122
I0
tp2112
I141059
s(I14
I5
I8
I89
I20161115
I0
tp2113
I140891
s(I14
I7
I8
I23
I20161122
I0
tp2114
I141249
s(I14
I5
I7
I12
I20161115
I0
tp2115
I140713
s(I14
I6
I4
I41
I20161121
I0
tp2116
I142401
s(I14
I5
I4
I19
I20161115
I0
tp2117
I141358
s(I14
I5
I7
I34
I20161115
I0
tp2118
I140735
s(I14
I5
I5
I9
I20161115
I0
tp2119
I141449
s(I14
I5
I4
I43
I20161115
I0
tp2120
I141382
s(I14
I7
I3
I74
I20161122
I0
tp2121
I140275
s(I14
I7
I4
I96
I20161122
I0
tp2122
I140398
s(I14
I6
I6
I68
I20161121
I0
tp2123
I141811
s(I14
I6
I1
I88
I20161121
I0
tp2124
I142137
s(I14
I5
I4
I10
I20161115
I0
tp2125
I141349
s(I14
I7
I5
I70
I20161122
I0
tp2126
I140975
s(I14
I7
I3
I26
I20161122
I0
tp2127
I140227
s(I14
I7
I4
I80
I20161122
I0
tp2128
I140382
s(I14
I5
I8
I60
I20161115
I0
tp2129
I140862
s(I14
I6
I7
I55
I20161121
I0
tp2130
I141899
s(I14
I5
I1
I62
I20161115
I0
tp2131
I140467
s(I14
I6
I1
I6
I20161121
I0
tp2132
I142055
s(I14
I6
I3
I80
I20161121
I0
tp2133
I142332
s(I14
I5
I1
I88
I20161115
I0
tp2134
I140493
s(I14
I7
I2
I20
I20161122
I0
tp2135
I140118
s(I14
I6
I5
I16
I20161121
I0
tp2136
I141660
s(I14
I5
I6
I51
I20161115
I0
tp2137
I141592
s(I14
I7
I1
I67
I20161122
I0
tp2138
I140066
s(I14
I7
I4
I4
I20161122
I0
tp2139
I140306
s(I14
I6
I3
I20
I20161121
I0
tp2140
I142272
s(I14
I6
I7
I41
I20161121
I0
tp2141
I141885
s(I14
I6
I2
I83
I20161121
I0
tp2142
I142234
s(I14
I7
I8
I48
I20161122
I0
tp2143
I141274
s(I14
I5
I4
I86
I20161115
I0
tp2144
I141425
s(I14
I5
I2
I44
I20161115
I0
tp2145
I140547
s(I14
I5
I3
I10
I20161115
I0
tp2146
I140611
s(I14
I6
I8
I85
I20161121
I0
tp2147
I142033
s(I14
I5
I6
I79
I20161115
I0
tp2148
I141620
s(I14
I6
I2
I21
I20161121
I0
tp2149
I142172
s(I14
I5
I3
I43
I20161115
I0
tp2150
I140644
s(I14
I6
I8
I17
I20161121
I0
tp2151
I141965
s(I14
I5
I3
I3
I20161115
I0
tp2152
I140604
s(I14
I6
I2
I101
I20161121
I0
tp2153
I142252
s(I14
I6
I1
I5
I20161121
I0
tp2154
I142054
s(I14
I7
I3
I57
I20161122
I0
tp2155
I140258
s(I14
I6
I5
I50
I20161121
I0
tp2156
I141694
s(I14
I6
I4
I24
I20161121
I0
tp2157
I142384
s(I14
I7
I6
I66
I20161122
I0
tp2158
I141077
s(I14
I6
I4
I6
I20161121
I0
tp2159
I142366
s(I14
I6
I1
I23
I20161121
I0
tp2160
I142072
s(I14
I6
I3
I65
I20161121
I0
tp2161
I142317
s(I14
I7
I2
I67
I20161122
I0
tp2162
I140165
s(I14
I7
I6
I49
I20161122
I0
tp2163
I141060
s(I14
I6
I6
I41
I20161121
I0
tp2164
I141784
s(I14
I7
I4
I87
I20161122
I0
tp2165
I140389
s(I14
I5
I4
I52
I20161115
I0
tp2166
I141391
s(I14
I6
I4
I31
I20161121
I0
tp2167
I142391
s(I14
I5
I2
I78
I20161115
I0
tp2168
I140581
s(I14
I5
I3
I44
I20161115
I0
tp2169
I140645
s(I14
I5
I2
I38
I20161115
I0
tp2170
I140541
s(I14
I5
I8
I81
I20161115
I0
tp2171
I140883
s(I14
I7
I1
I92
I20161122
I0
tp2172
I140091
s(I14
I6
I1
I37
I20161121
I0
tp2173
I142086
s(I14
I5
I5
I33
I20161115
I0
tp2174
I141473
s(I14
I7
I3
I89
I20161122
I0
tp2175
I140290
s(I14
I7
I5
I3
I20161122
I0
tp2176
I140908
s(I14
I6
I4
I93
I20161121
I0
tp2177
I142453
s(I14
I5
I7
I4
I20161115
I0
tp2178
I140705
s(I14
I6
I6
I27
I20161121
I0
tp2179
I141770
s(I14
I6
I8
I36
I20161121
I0
tp2180
I141984
s(I14
I5
I4
I11
I20161115
I0
tp2181
I141350
s(I14
I6
I3
I26
I20161121
I0
tp2182
I142278
s(I14
I5
I7
I37
I20161115
I0
tp2183
I140738
s(I14
I7
I8
I74
I20161122
I0
tp2184
I141300
s(I14
I5
I5
I12
I20161115
I0
tp2185
I141452
s(I14
I7
I6
I72
I20161122
I0
tp2186
I141083
s(I14
I6
I1
I44
I20161121
I0
tp2187
I142093
s(I14
I6
I3
I74
I20161121
I0
tp2188
I142326
s(I14
I7
I7
I68
I20161122
I0
tp2189
I141190
s(I14
I5
I1
I94
I20161115
I0
tp2190
I140499
s(I14
I5
I2
I18
I20161115
I0
tp2191
I140521
s(I14
I6
I8
I58
I20161121
I0
tp2192
I142006
s(I14
I5
I1
I4
I20161115
I0
tp2193
I140409
s(I14
I7
I3
I39
I20161122
I0
tp2194
I140240
s(I14
I6
I3
I4
I20161121
I0
tp2195
I142256
s(I14
I6
I2
I54
I20161121
I0
tp2196
I142205
s(I14
I7
I2
I96
I20161122
I0
tp2197
I140194
s(I14
I6
I8
I19
I20161121
I0
tp2198
I141967
s(I14
I7
I2
I48
I20161122
I0
tp2199
I140146
s(I14
I7
I6
I6
I20161122
I0
tp2200
I141017
s(I14
I6
I8
I35
I20161121
I0
tp2201
I141983
s(I14
I5
I8
I56
I20161115
I0
tp2202
I140858
s(I14
I6
I5
I17
I20161121
I0
tp2203
I141661
s(I14
I5
I1
I74
I20161115
I0
tp2204
I140479
s(I14
I5
I8
I83
I20161115
I0
tp2205
I140885
s(I14
I5
I3
I42
I20161115
I0
tp2206
I140643
s(I14
I5
I6
I65
I20161115
I0
tp2207
I141606
s(I14
I5
I6
I41
I20161115
I0
tp2208
I141582
s(I14
I5
I7
I78
I20161115
I0
tp2209
I140779
s(I14
I5
I6
I72
I20161115
I0
tp2210
I141613
s(I14
I6
I5
I40
I20161121
I0
tp2211
I141684
s(I14
I6
I4
I14
I20161121
I0
tp2212
I142374
s(I14
I7
I3
I8
I20161122
I0
tp2213
I140209
s(I14
I5
I4
I34
I20161115
I0
tp2214
I141373
s(I14
I6
I2
I20
I20161121
I0
tp2215
I142171
s(I14
I7
I8
I89
I20161122
I0
tp2216
I141315
s(I14
I7
I7
I100
I20161122
I0
tp2217
I141222
s(I14
I7
I5
I76
I20161122
I0
tp2218
I140981
s(I14
I5
I3
I86
I20161115
I0
tp2219
I140687
s(I14
I5
I1
I61
I20161115
I0
tp2220
I140466
s(I14
I6
I4
I76
I20161121
I0
tp2221
I142436
s(I14
I6
I7
I48
I20161121
I0
tp2222
I141892
s(I14
I5
I1
I5
I20161115
I0
tp2223
I140410
s(I14
I7
I8
I5
I20161122
I0
tp2224
I141231
s(I14
I6
I5
I30
I20161121
I0
tp2225
I141674
s(I14
I6
I1
I73
I20161121
I0
tp2226
I142122
s(I14
I6
I2
I29
I20161121
I0
tp2227
I142180
s(I14
I6
I1
I61
I20161121
I0
tp2228
I142110
s(I14
I6
I4
I69
I20161121
I0
tp2229
I142429
s(I14
I5
I6
I4
I20161115
I0
tp2230
I141545
s(I14
I7
I4
I26
I20161122
I0
tp2231
I140328
s(I14
I7
I3
I84
I20161122
I0
tp2232
I140285
s(I14
I5
I2
I79
I20161115
I0
tp2233
I140582
s(I14
I5
I3
I13
I20161115
I0
tp2234
I140614
s(I14
I6
I3
I53
I20161121
I0
tp2235
I142305
s(I14
I7
I6
I101
I20161122
I0
tp2236
I141112
s(I14
I6
I2
I47
I20161121
I0
tp2237
I142198
s(I14
I6
I7
I24
I20161121
I0
tp2238
I141868
s(I14
I6
I3
I101
I20161121
I0
tp2239
I142353
s(I14
I7
I6
I85
I20161122
I0
tp2240
I141096
s(I14
I5
I3
I76
I20161115
I0
tp2241
I140677
s(I14
I6
I6
I13
I20161121
I0
tp2242
I141756
s(I14
I6
I8
I50
I20161121
I0
tp2243
I141998
s(I14
I5
I2
I70
I20161115
I0
tp2244
I140573
s(I14
I6
I6
I40
I20161121
I0
tp2245
I141783
s(I14
I7
I3
I40
I20161122
I0
tp2246
I140241
s(I14
I7
I2
I38
I20161122
I0
tp2247
I140136
s(I14
I5
I8
I14
I20161115
I0
tp2248
I140816
s(I14
I7
I7
I1
I20161122
I0
tp2249
I141123
s(I14
I6
I3
I89
I20161121
I0
tp2250
I142341
s(I14
I7
I2
I59
I20161122
I0
tp2251
I140157
s(I14
I7
I8
I38
I20161122
I0
tp2252
I141264
s(I14
I6
I3
I62
I20161121
I0
tp2253
I142314
s(I14
I6
I3
I27
I20161121
I0
tp2254
I142279
s(I14
I5
I5
I35
I20161115
I0
tp2255
I141475
s(I14
I6
I2
I13
I20161121
I0
tp2256
I142164
s(I14
I6
I5
I95
I20161121
I0
tp2257
I141739
s(I14
I6
I2
I80
I20161121
I0
tp2258
I142231
s(I14
I7
I5
I8
I20161122
I0
tp2259
I140913
s(I14
I5
I5
I6
I20161115
I0
tp2260
I141446
s(I14
I6
I6
I35
I20161121
I0
tp2261
I141778
s(I14
I5
I5
I98
I20161115
I0
tp2262
I141538
s(I14
I5
I5
I40
I20161115
I0
tp2263
I141480
s(I14
I7
I2
I1
I20161122
I0
tp2264
I140099
s(I14
I7
I8
I65
I20161122
I0
tp2265
I141291
s(I14
I7
I5
I68
I20161122
I0
tp2266
I140973
s(I14
I7
I6
I106
I20161122
I0
tp2267
I141117
s(I14
I6
I3
I79
I20161121
I0
tp2268
I142331
s(I14
I6
I8
I18
I20161121
I0
tp2269
I141966
s(I14
I6
I5
I77
I20161121
I0
tp2270
I141721
s(I14
I6
I2
I98
I20161121
I0
tp2271
I142249
s(I14
I6
I3
I44
I20161121
I0
tp2272
I142296
s(I14
I5
I6
I73
I20161115
I0
tp2273
I141614
s(I14
I5
I7
I32
I20161115
I0
tp2274
I140733
s(I14
I7
I3
I31
I20161122
I0
tp2275
I140232
s(I14
I6
I3
I28
I20161121
I0
tp2276
I142280
s(I14
I7
I1
I19
I20161122
I0
tp2277
I140018
s(I14
I6
I2
I62
I20161121
I0
tp2278
I142213
s(I14
I7
I2
I88
I20161122
I0
tp2279
I140186
s(I14
I5
I7
I70
I20161115
I0
tp2280
I140771
s(I14
I7
I4
I2
I20161122
I0
tp2281
I140304
s(I14
I6
I5
I68
I20161121
I0
tp2282
I141712
s(I14
I5
I4
I37
I20161115
I0
tp2283
I141376
s(I14
I5
I6
I80
I20161115
I0
tp2284
I141621
s(I14
I6
I7
I26
I20161121
I0
tp2285
I141870
s(I14
I6
I1
I15
I20161121
I0
tp2286
I142064
s(I14
I5
I4
I56
I20161115
I0
tp2287
I141395
s(I14
I5
I3
I48
I20161115
I0
tp2288
I140649
s(I14
I7
I8
I53
I20161122
I0
tp2289
I141279
s(I14
I5
I3
I78
I20161115
I0
tp2290
I140679
s(I14
I6
I7
I92
I20161121
I0
tp2291
I141936
s(I14
I5
I1
I37
I20161115
I0
tp2292
I140442
s(I14
I6
I6
I86
I20161121
I0
tp2293
I141829
s(I14
I7
I2
I46
I20161122
I0
tp2294
I140144
s(I14
I7
I5
I12
I20161122
I0
tp2295
I140917
s(I14
I7
I8
I8
I20161122
I0
tp2296
I141234
s(I14
I7
I5
I100
I20161122
I0
tp2297
I141005
s(I14
I7
I7
I10
I20161122
I0
tp2298
I141132
s(I14
I5
I8
I58
I20161115
I0
tp2299
I140860
s(I14
I5
I2
I27
I20161115
I0
tp2300
I140530
s(I14
I6
I4
I68
I20161121
I0
tp2301
I142428
s(I14
I6
I7
I56
I20161121
I0
tp2302
I141900
s(I14
I6
I6
I18
I20161121
I0
tp2303
I141761
s(I14
I5
I4
I39
I20161115
I0
tp2304
I141378
s(I14
I6
I6
I92
I20161121
I0
tp2305
I141835
s(I14
I6
I3
I73
I20161121
I0
tp2306
I142325
s(I14
I5
I4
I1
I20161115
I0
tp2307
I141340
s(I14
I7
I5
I62
I20161122
I0
tp2308
I140967
s(I14
I5
I8
I36
I20161115
I0
tp2309
I140838
s(I14
I7
I4
I101
I20161122
I0
tp2310
I140403
s(I14
I6
I5
I9
I20161121
I0
tp2311
I141653
s(I14
I6
I6
I12
I20161121
I0
tp2312
I141755
s(I14
I7
I3
I76
I20161122
I0
tp2313
I140277
s(I14
I7
I5
I14
I20161122
I0
tp2314
I140919
s(I14
I6
I3
I13
I20161121
I0
tp2315
I142265
s(I14
I7
I4
I85
I20161122
I0
tp2316
I140387
s(I14
I6
I5
I57
I20161121
I0
tp2317
I141701
s(I14
I6
I6
I101
I20161121
I0
tp2318
I141844
s(I14
I6
I6
I97
I20161121
I0
tp2319
I141840
s(I14
I7
I1
I87
I20161122
I0
tp2320
I140086
s(I14
I7
I2
I78
I20161122
I0
tp2321
I140176
s(I14
I5
I5
I67
I20161115
I0
tp2322
I141507
s(I14
I7
I7
I41
I20161122
I0
tp2323
I141163
s(I14
I5
I5
I43
I20161115
I0
tp2324
I141483
s(I14
I7
I2
I17
I20161122
I0
tp2325
I140115
s(I14
I6
I2
I60
I20161121
I0
tp2326
I142211
s(I14
I6
I3
I63
I20161121
I0
tp2327
I142315
s(I14
I7
I5
I87
I20161122
I0
tp2328
I140992
s(I14
I7
I7
I25
I20161122
I0
tp2329
I141147
s(I14
I6
I6
I87
I20161121
I0
tp2330
I141830
s(I14
I5
I5
I14
I20161115
I0
tp2331
I141454
s(I14
I6
I2
I12
I20161121
I0
tp2332
I142163
s(I14
I6
I6
I10
I20161121
I0
tp2333
I141753
s(I14
I7
I2
I93
I20161122
I0
tp2334
I140191
s(I14
I7
I8
I61
I20161122
I0
tp2335
I141287
s(I14
I5
I7
I1
I20161115
I0
tp2336
I140702
s(I14
I6
I5
I43
I20161121
I0
tp2337
I141687
s(I14
I7
I1
I18
I20161122
I0
tp2338
I140017
s(I14
I7
I5
I89
I20161122
I0
tp2339
I140994
s(I14
I7
I4
I50
I20161122
I0
tp2340
I140352
s(I14
I5
I2
I51
I20161115
I0
tp2341
I140554
s(I14
I6
I4
I71
I20161121
I0
tp2342
I142431
s(I14
I5
I7
I64
I20161115
I0
tp2343
I140765
s(I14
I7
I1
I66
I20161122
I0
tp2344
I140065
s(I14
I5
I7
I26
I20161115
I0
tp2345
I140727
s(I14
I7
I5
I41
I20161122
I0
tp2346
I140946
s(I14
I7
I6
I3
I20161122
I0
tp2347
I141014
s(I14
I7
I1
I55
I20161122
I0
tp2348
I140054
s(I14
I5
I3
I80
I20161115
I0
tp2349
I140681
s(I14
I5
I8
I57
I20161115
I0
tp2350
I140859
s(I14
I5
I3
I40
I20161115
I0
tp2351
I140641
s(I14
I6
I4
I57
I20161121
I0
tp2352
I142417
s(I14
I6
I6
I16
I20161121
I0
tp2353
I141759
s(I14
I6
I7
I27
I20161121
I0
tp2354
I141871
s(I14
I5
I7
I84
I20161115
I0
tp2355
I140785
s(I14
I5
I3
I73
I20161115
I0
tp2356
I140674
s(I14
I5
I1
I32
I20161115
I0
tp2357
I140437
s(I14
I7
I1
I24
I20161122
I0
tp2358
I140023
s(I14
I6
I7
I93
I20161121
I0
tp2359
I141937
s(I14
I7
I4
I63
I20161122
I0
tp2360
I140365
s(I14
I6
I4
I39
I20161121
I0
tp2361
I142399
s(I14
I7
I7
I102
I20161122
I0
tp2362
I141224
s(I14
I7
I1
I97
I20161122
I0
tp2363
I140096
s(I14
I5
I8
I85
I20161115
I0
tp2364
I140887
s(I14
I7
I7
I86
I20161122
I0
tp2365
I141208
s(I14
I5
I1
I92
I20161115
I0
tp2366
I140497
s(I14
I6
I7
I100
I20161121
I0
tp2367
I141944
s(I14
I5
I7
I35
I20161115
I0
tp2368
I140736
s(I14
I5
I8
I77
I20161115
I0
tp2369
I140879
s(I14
I6
I1
I70
I20161121
I0
tp2370
I142119
s(I14
I5
I6
I55
I20161115
I0
tp2371
I141596
s(I14
I5
I7
I27
I20161115
I0
tp2372
I140728
s(I14
I5
I5
I38
I20161115
I0
tp2373
I141478
s(I14
I5
I6
I26
I20161115
I0
tp2374
I141567
s(I14
I5
I4
I7
I20161115
I0
tp2375
I141346
s(I14
I7
I6
I32
I20161122
I0
tp2376
I141043
s(I14
I5
I4
I31
I20161115
I0
tp2377
I141370
s(I14
I6
I1
I4
I20161121
I0
tp2378
I142053
s(I14
I7
I8
I7
I20161122
I0
tp2379
I141233
s(I14
I6
I3
I61
I20161121
I0
tp2380
I142313
s(I14
I6
I3
I82
I20161121
I0
tp2381
I142334
s(I14
I5
I4
I85
I20161115
I0
tp2382
I141424
s(I14
I7
I6
I16
I20161122
I0
tp2383
I141027
s(I14
I7
I5
I90
I20161122
I0
tp2384
I140995
s(I14
I5
I1
I7
I20161115
I0
tp2385
I140412
s(I14
I6
I5
I85
I20161121
I0
tp2386
I141729
s(I14
I7
I3
I42
I20161122
I0
tp2387
I140243
s(I14
I7
I4
I64
I20161122
I0
tp2388
I140366
s(I14
I7
I6
I30
I20161122
I0
tp2389
I141041
s(I14
I6
I8
I91
I20161121
I0
tp2390
I142039
s(I14
I7
I5
I38
I20161122
I0
tp2391
I140943
s(I14
I7
I8
I46
I20161122
I0
tp2392
I141272
s(I14
I7
I4
I48
I20161122
I0
tp2393
I140350
s(I14
I6
I5
I1
I20161121
I0
tp2394
I141645
s(I14
I5
I6
I53
I20161115
I0
tp2395
I141594
s(I14
I5
I2
I48
I20161115
I0
tp2396
I140551
s(I14
I5
I5
I61
I20161115
I0
tp2397
I141501
s(I14
I6
I5
I71
I20161121
I0
tp2398
I141715
s(I14
I6
I5
I48
I20161121
I0
tp2399
I141692
s(I14
I6
I7
I25
I20161121
I0
tp2400
I141869
s(I14
I5
I5
I95
I20161115
I0
tp2401
I141535
s(I14
I7
I8
I32
I20161122
I0
tp2402
I141258
s(I14
I5
I2
I21
I20161115
I0
tp2403
I140524
s(I14
I6
I7
I85
I20161121
I0
tp2404
I141929
s(I14
I7
I8
I16
I20161122
I0
tp2405
I141242
s(I14
I7
I7
I18
I20161122
I0
tp2406
I141140
s(I14
I5
I8
I29
I20161115
I0
tp2407
I140831
s(I14
I5
I6
I33
I20161115
I0
tp2408
I141574
s(I14
I6
I4
I67
I20161121
I0
tp2409
I142427
s(I14
I5
I7
I53
I20161115
I0
tp2410
I140754
s(I14
I5
I7
I45
I20161115
I0
tp2411
I140746
s(I14
I5
I5
I4
I20161115
I0
tp2412
I141444
s(I14
I6
I8
I49
I20161121
I0
tp2413
I141997
s(I14
I6
I7
I71
I20161121
I0
tp2414
I141915
s(I14
I6
I2
I69
I20161121
I0
tp2415
I142220
s(I14
I7
I3
I25
I20161122
I0
tp2416
I140226
s(I14
I6
I4
I29
I20161121
I0
tp2417
I142389
s(I14
I5
I1
I95
I20161115
I0
tp2418
I140500
s(I14
I7
I6
I45
I20161122
I0
tp2419
I141056
s(I14
I7
I1
I21
I20161122
I0
tp2420
I140020
s(I14
I5
I8
I75
I20161115
I0
tp2421
I140877
s(I14
I5
I1
I58
I20161115
I0
tp2422
I140463
s(I14
I5
I8
I99
I20161115
I0
tp2423
I140901
s(I14
I5
I2
I82
I20161115
I0
tp2424
I140585
s(I14
I5
I6
I17
I20161115
I0
tp2425
I141558
s(I14
I5
I1
I68
I20161115
I0
tp2426
I140473
s(I14
I6
I1
I42
I20161121
I0
tp2427
I142091
s(I14
I5
I7
I59
I20161115
I0
tp2428
I140760
s(I14
I7
I2
I35
I20161122
I0
tp2429
I140133
s(I14
I7
I7
I91
I20161122
I0
tp2430
I141213
s(I14
I7
I6
I17
I20161122
I0
tp2431
I141028
s(I14
I5
I4
I91
I20161115
I0
tp2432
I141430
s(I14
I6
I4
I63
I20161121
I0
tp2433
I142423
s(I14
I5
I3
I46
I20161115
I0
tp2434
I140647
s(I14
I5
I4
I82
I20161115
I0
tp2435
I141421
s(I14
I5
I3
I6
I20161115
I0
tp2436
I140607
s(I14
I7
I8
I35
I20161122
I0
tp2437
I141261
s(I14
I6
I6
I84
I20161121
I0
tp2438
I141827
s(I14
I6
I6
I59
I20161121
I0
tp2439
I141802
s(I14
I6
I8
I68
I20161121
I0
tp2440
I142016
s(I14
I6
I1
I60
I20161121
I0
tp2441
I142109
s(I14
I6
I2
I18
I20161121
I0
tp2442
I142169
s(I14
I7
I6
I43
I20161122
I0
tp2443
I141054
s(I14
I6
I1
I12
I20161121
I0
tp2444
I142061
s(I14
I7
I8
I31
I20161122
I0
tp2445
I141257
s(I14
I7
I3
I78
I20161122
I0
tp2446
I140279
s(I14
I7
I7
I36
I20161122
I0
tp2447
I141158
s(I14
I7
I6
I27
I20161122
I0
tp2448
I141038
s(I14
I6
I5
I46
I20161121
I0
tp2449
I141690
s(I14
I7
I6
I111
I20161122
I0
tp2450
I141122
s(I14
I6
I7
I3
I20161121
I0
tp2451
I141847
s(I14
I6
I8
I90
I20161121
I0
tp2452
I142038
s(I14
I5
I6
I85
I20161115
I0
tp2453
I141626
s(I14
I7
I3
I7
I20161122
I0
tp2454
I140208
s(I14
I6
I3
I100
I20161121
I0
tp2455
I142352
s(I14
I5
I5
I93
I20161115
I0
tp2456
I141533
s(I14
I7
I2
I64
I20161122
I0
tp2457
I140162
s(I14
I5
I5
I72
I20161115
I0
tp2458
I141512
s(I14
I6
I8
I51
I20161121
I0
tp2459
I141999
s.