(dp0
(I5
I7
I2
I5
I20161130
tp1
I50283
s(I5
I7
I2
I54
I20161130
tp2
I50332
s(I5
I7
I1
I15
I20161130
tp3
I50194
s(I5
I7
I5
I13
I20161130
tp4
I50012
s(I5
I7
I1
I3
I20161130
tp5
I50182
s(I5
I7
I1
I58
I20161130
tp6
I50237
s(I5
I5
I1
I38
I20161031
tp7
I50379
s(I5
I7
I5
I69
I20161130
tp8
I50068
s(I5
I7
I5
I60
I20161130
tp9
I50059
s(I5
I7
I6
I56
I20161130
tp10
I50156
s(I5
I7
I5
I8
I20161130
tp11
I50007
s(I5
I5
I1
I92
I20161031
tp12
I50433
s(I5
I7
I1
I51
I20161130
tp13
I50230
s(I5
I7
I2
I19
I20161130
tp14
I50297
s(I5
I7
I5
I22
I20161130
tp15
I50021
s(I5
I5
I1
I97
I20161031
tp16
I50438
s(I5
I7
I6
I68
I20161130
tp17
I50168
s(I5
I7
I6
I54
I20161130
tp18
I50154
s(I5
I7
I5
I79
I20161130
tp19
I50078
s(I5
I7
I6
I47
I20161130
tp20
I50147
s(I5
I5
I1
I2
I20161031
tp21
I50343
s(I5
I7
I2
I33
I20161130
tp22
I50311
s(I5
I5
I1
I84
I20161031
tp23
I50425
s(I5
I7
I5
I56
I20161130
tp24
I50055
s(I5
I7
I1
I54
I20161130
tp25
I50233
s(I5
I5
I1
I93
I20161031
tp26
I50434
s(I5
I7
I6
I29
I20161130
tp27
I50129
s(I5
I7
I5
I74
I20161130
tp28
I50073
s(I5
I5
I1
I26
I20161031
tp29
I50367
s(I5
I7
I6
I38
I20161130
tp30
I50138
s(I5
I7
I2
I56
I20161130
tp31
I50334
s(I5
I7
I1
I29
I20161130
tp32
I50208
s(I5
I7
I5
I19
I20161130
tp33
I50018
s(I5
I5
I1
I14
I20161031
tp34
I50355
s(I5
I7
I1
I96
I20161130
tp35
I50275
s(I5
I7
I5
I34
I20161130
tp36
I50033
s(I5
I5
I1
I68
I20161031
tp37
I50409
s(I5
I5
I1
I47
I20161031
tp38
I50388
s(I5
I7
I6
I42
I20161130
tp39
I50142
s(I5
I7
I5
I99
I20161130
tp40
I50098
s(I5
I7
I5
I16
I20161130
tp41
I50015
s(I5
I7
I5
I81
I20161130
tp42
I50080
s(I5
I7
I1
I47
I20161130
tp43
I50226
s(I5
I5
I1
I18
I20161031
tp44
I50359
s(I5
I7
I6
I35
I20161130
tp45
I50135
s(I5
I5
I1
I6
I20161031
tp46
I50347
s(I5
I7
I5
I3
I20161130
tp47
I50002
s(I5
I5
I1
I39
I20161031
tp48
I50380
s(I5
I7
I5
I92
I20161130
tp49
I50091
s(I5
I5
I1
I43
I20161031
tp50
I50384
s(I5
I7
I1
I30
I20161130
tp51
I50209
s(I5
I7
I2
I6
I20161130
tp52
I50284
s(I5
I7
I1
I95
I20161130
tp53
I50274
s(I5
I7
I5
I29
I20161130
tp54
I50028
s(I5
I7
I6
I41
I20161130
tp55
I50141
s(I5
I7
I5
I52
I20161130
tp56
I50051
s(I5
I7
I1
I10
I20161130
tp57
I50189
s(I5
I5
I1
I74
I20161031
tp58
I50415
s(I5
I5
I1
I65
I20161031
tp59
I50406
s(I5
I7
I6
I71
I20161130
tp60
I50171
s(I5
I5
I1
I35
I20161031
tp61
I50376
s(I5
I7
I5
I85
I20161130
tp62
I50084
s(I5
I7
I5
I76
I20161130
tp63
I50075
s(I5
I7
I1
I66
I20161130
tp64
I50245
s(I5
I5
I1
I80
I20161031
tp65
I50421
s(I5
I7
I6
I8
I20161130
tp66
I50108
s(I5
I5
I1
I85
I20161031
tp67
I50426
s(I5
I7
I2
I10
I20161130
tp68
I50288
s(I5
I7
I6
I4
I20161130
tp69
I50104
s(I5
I7
I6
I61
I20161130
tp70
I50161
s(I5
I5
I1
I89
I20161031
tp71
I50430
s(I5
I7
I6
I70
I20161130
tp72
I50170
s(I5
I7
I5
I95
I20161130
tp73
I50094
s(I5
I7
I6
I63
I20161130
tp74
I50163
s(I5
I7
I6
I11
I20161130
tp75
I50111
s(I5
I5
I1
I67
I20161031
tp76
I50408
s(I5
I7
I5
I66
I20161130
tp77
I50065
s(I5
I5
I1
I15
I20161031
tp78
I50356
s(I5
I7
I5
I73
I20161130
tp79
I50072
s(I5
I5
I1
I81
I20161031
tp80
I50422
s(I5
I7
I6
I52
I20161130
tp81
I50152
s(I5
I7
I2
I17
I20161130
tp82
I50295
s(I5
I7
I1
I68
I20161130
tp83
I50247
s(I5
I5
I1
I102
I20161031
tp84
I50443
s(I5
I7
I5
I35
I20161130
tp85
I50034
s(I5
I5
I1
I7
I20161031
tp86
I50348
s(I5
I7
I6
I59
I20161130
tp87
I50159
s(I5
I7
I2
I53
I20161130
tp88
I50331
s(I5
I5
I1
I11
I20161031
tp89
I50352
s(I5
I7
I1
I62
I20161130
tp90
I50241
s(I5
I7
I5
I33
I20161130
tp91
I50032
s(I5
I7
I5
I61
I20161130
tp92
I50060
s(I5
I7
I6
I73
I20161130
tp93
I50173
s(I5
I7
I5
I84
I20161130
tp94
I50083
s(I5
I5
I1
I31
I20161031
tp95
I50372
s(I5
I7
I6
I26
I20161130
tp96
I50126
s(I5
I7
I2
I20
I20161130
tp97
I50298
s(I5
I7
I1
I31
I20161130
tp98
I50210
s(I5
I5
I1
I3
I20161031
tp99
I50344
s(I5
I7
I2
I37
I20161130
tp100
I50315
s(I5
I7
I2
I23
I20161130
tp101
I50301
s(I5
I7
I6
I40
I20161130
tp102
I50140
s(I5
I5
I1
I40
I20161031
tp103
I50381
s(I5
I7
I5
I45
I20161130
tp104
I50044
s(I5
I7
I1
I35
I20161130
tp105
I50214
s(I5
I7
I2
I3
I20161130
tp106
I50281
s(I5
I7
I1
I90
I20161130
tp107
I50269
s(I5
I7
I1
I17
I20161130
tp108
I50196
s(I5
I7
I1
I8
I20161130
tp109
I50187
s(I5
I5
I1
I90
I20161031
tp110
I50431
s(I5
I7
I1
I97
I20161130
tp111
I50276
s(I5
I7
I6
I25
I20161130
tp112
I50125
s(I5
I5
I1
I32
I20161031
tp113
I50373
s(I5
I7
I5
I40
I20161130
tp114
I50039
s(I5
I7
I2
I26
I20161130
tp115
I50304
s(I5
I7
I1
I83
I20161130
tp116
I50262
s(I5
I7
I2
I51
I20161130
tp117
I50329
s(I5
I7
I6
I13
I20161130
tp118
I50113
s(I5
I7
I1
I1
I20161130
tp119
I50180
s(I5
I7
I5
I31
I20161130
tp120
I50030
s(I5
I5
I1
I82
I20161031
tp121
I50423
s(I5
I7
I5
I54
I20161130
tp122
I50053
s(I5
I5
I1
I70
I20161031
tp123
I50411
s(I5
I7
I6
I79
I20161130
tp124
I50179
s(I5
I7
I1
I13
I20161130
tp125
I50192
s(I5
I5
I1
I103
I20161031
tp126
I50444
s(I5
I7
I1
I92
I20161130
tp127
I50271
s(I5
I7
I5
I82
I20161130
tp128
I50081
s(I5
I7
I5
I65
I20161130
tp129
I50064
s(I5
I7
I5
I15
I20161130
tp130
I50014
s(I5
I5
I1
I94
I20161031
tp131
I50435
s(I5
I7
I1
I61
I20161130
tp132
I50240
s(I5
I7
I5
I51
I20161130
tp133
I50050
s(I5
I5
I1
I99
I20161031
tp134
I50440
s(I5
I7
I6
I74
I20161130
tp135
I50174
s(I5
I7
I5
I48
I20161130
tp136
I50047
s(I5
I7
I1
I14
I20161130
tp137
I50193
s(I5
I7
I1
I79
I20161130
tp138
I50258
s(I5
I5
I1
I8
I20161031
tp139
I50349
s(I5
I7
I5
I36
I20161130
tp140
I50035
s(I5
I5
I1
I60
I20161031
tp141
I50401
s(I5
I7
I6
I32
I20161130
tp142
I50132
s(I5
I5
I1
I23
I20161031
tp143
I50364
s(I5
I7
I5
I17
I20161130
tp144
I50016
s(I5
I7
I6
I57
I20161130
tp145
I50157
s(I5
I7
I2
I38
I20161130
tp146
I50316
s(I5
I7
I2
I58
I20161130
tp147
I50336
s(I5
I5
I1
I52
I20161031
tp148
I50393
s(I5
I7
I1
I42
I20161130
tp149
I50221
s(I5
I7
I1
I24
I20161130
tp150
I50203
s(I5
I5
I1
I33
I20161031
tp151
I50374
s(I5
I7
I2
I28
I20161130
tp152
I50306
s(I5
I7
I5
I23
I20161130
tp153
I50022
s(I5
I5
I1
I71
I20161031
tp154
I50412
s(I5
I5
I1
I12
I20161031
tp155
I50353
s(I5
I7
I2
I42
I20161130
tp156
I50320
s(I5
I7
I6
I36
I20161130
tp157
I50136
s(I5
I5
I1
I45
I20161031
tp158
I50386
s(I5
I7
I6
I22
I20161130
tp159
I50122
s(I5
I7
I5
I47
I20161130
tp160
I50046
s(I5
I7
I6
I15
I20161130
tp161
I50115
s(I5
I7
I5
I6
I20161130
tp162
I50005
s(I5
I7
I1
I28
I20161130
tp163
I50207
s(I5
I7
I5
I18
I20161130
tp164
I50017
s(I5
I5
I1
I95
I20161031
tp165
I50436
s(I5
I7
I1
I93
I20161130
tp166
I50272
s(I5
I7
I6
I43
I20161130
tp167
I50143
s(I5
I7
I5
I98
I20161130
tp168
I50097
s(I5
I7
I5
I80
I20161130
tp169
I50079
s(I5
I7
I2
I2
I20161130
tp170
I50280
s(I5
I7
I6
I28
I20161130
tp171
I50128
s(I5
I7
I6
I53
I20161130
tp172
I50153
s(I5
I5
I1
I104
I20161031
tp173
I50445
s(I5
I5
I1
I87
I20161031
tp174
I50428
s(I5
I7
I5
I2
I20161130
tp175
I50001
s(I5
I7
I6
I10
I20161130
tp176
I50110
s(I5
I7
I5
I67
I20161130
tp177
I50066
s(I5
I5
I1
I91
I20161031
tp178
I50432
s(I5
I7
I5
I49
I20161130
tp179
I50048
s(I5
I7
I2
I7
I20161130
tp180
I50285
s(I5
I7
I1
I94
I20161130
tp181
I50273
s(I5
I5
I1
I96
I20161031
tp182
I50437
s(I5
I7
I6
I12
I20161130
tp183
I50112
s(I5
I7
I5
I93
I20161130
tp184
I50092
s(I5
I5
I1
I20
I20161031
tp185
I50361
s(I5
I7
I1
I74
I20161130
tp186
I50253
s(I5
I7
I2
I62
I20161130
tp187
I50340
s(I5
I5
I1
I53
I20161031
tp188
I50394
s(I5
I7
I6
I48
I20161130
tp189
I50148
s(I5
I7
I5
I59
I20161130
tp190
I50058
s(I5
I5
I1
I57
I20161031
tp191
I50398
s(I5
I7
I2
I55
I20161130
tp192
I50333
s(I5
I7
I6
I9
I20161130
tp193
I50109
s(I5
I7
I5
I20
I20161130
tp194
I50019
s(I5
I7
I6
I72
I20161130
tp195
I50172
s(I5
I7
I5
I77
I20161130
tp196
I50076
s(I5
I7
I1
I67
I20161130
tp197
I50246
s(I5
I7
I2
I35
I20161130
tp198
I50313
s(I5
I5
I1
I13
I20161031
tp199
I50354
s(I5
I7
I1
I49
I20161130
tp200
I50228
s(I5
I7
I1
I40
I20161130
tp201
I50219
s(I5
I7
I5
I38
I20161130
tp202
I50037
s(I5
I5
I1
I49
I20161031
tp203
I50390
s(I5
I7
I6
I18
I20161130
tp204
I50118
s(I5
I7
I5
I30
I20161130
tp205
I50029
s(I5
I7
I1
I76
I20161130
tp206
I50255
s(I5
I7
I6
I45
I20161130
tp207
I50145
s(I5
I7
I1
I33
I20161130
tp208
I50212
s(I5
I5
I1
I9
I20161031
tp209
I50350
s(I5
I7
I5
I63
I20161130
tp210
I50062
s(I5
I7
I6
I31
I20161130
tp211
I50131
s(I5
I7
I5
I86
I20161130
tp212
I50085
s(I5
I5
I1
I42
I20161031
tp213
I50383
s(I5
I7
I1
I45
I20161130
tp214
I50224
s(I5
I7
I2
I16
I20161130
tp215
I50294
s(I5
I7
I5
I32
I20161130
tp216
I50031
s(I5
I7
I5
I97
I20161130
tp217
I50096
s(I5
I5
I1
I64
I20161031
tp218
I50405
s(I5
I7
I6
I44
I20161130
tp219
I50144
s(I5
I7
I6
I5
I20161130
tp220
I50105
s(I5
I7
I2
I31
I20161130
tp221
I50309
s(I5
I7
I6
I17
I20161130
tp222
I50117
s(I5
I5
I1
I21
I20161031
tp223
I50362
s(I5
I7
I5
I83
I20161130
tp224
I50082
s(I5
I7
I5
I1
I20161130
tp225
I50000
s(I5
I5
I1
I88
I20161031
tp226
I50429
s(I5
I7
I1
I46
I20161130
tp227
I50225
s(I5
I5
I1
I76
I20161031
tp228
I50417
s(I5
I7
I5
I68
I20161130
tp229
I50067
s(I5
I7
I6
I1
I20161130
tp230
I50101
s(I5
I7
I6
I64
I20161130
tp231
I50164
s(I5
I5
I1
I17
I20161031
tp232
I50358
s(I5
I7
I6
I50
I20161130
tp233
I50150
s(I5
I7
I5
I11
I20161130
tp234
I50010
s(I5
I5
I1
I50
I20161031
tp235
I50391
s(I5
I7
I1
I9
I20161130
tp236
I50188
s(I5
I7
I5
I7
I20161130
tp237
I50006
s(I5
I7
I5
I62
I20161130
tp238
I50061
s(I5
I5
I1
I101
I20161031
tp239
I50442
s(I5
I7
I6
I77
I20161130
tp240
I50177
s(I5
I7
I1
I65
I20161130
tp241
I50244
s(I5
I7
I1
I56
I20161130
tp242
I50235
s(I5
I5
I1
I10
I20161031
tp243
I50351
s(I5
I7
I2
I60
I20161130
tp244
I50338
s(I5
I7
I1
I12
I20161130
tp245
I50191
s(I5
I5
I1
I62
I20161031
tp246
I50403
s(I5
I7
I5
I55
I20161130
tp247
I50054
s(I5
I7
I6
I23
I20161130
tp248
I50123
s(I5
I7
I1
I18
I20161130
tp249
I50197
s(I5
I7
I6
I78
I20161130
tp250
I50178
s(I5
I7
I2
I50
I20161130
tp251
I50328
s(I5
I7
I1
I75
I20161130
tp252
I50254
s(I5
I7
I2
I43
I20161130
tp253
I50321
s(I5
I7
I6
I37
I20161130
tp254
I50137
s(I5
I7
I1
I60
I20161130
tp255
I50239
s(I5
I5
I1
I54
I20161031
tp256
I50395
s(I5
I7
I5
I50
I20161130
tp257
I50049
s(I5
I7
I2
I25
I20161130
tp258
I50303
s(I5
I7
I6
I75
I20161130
tp259
I50175
s(I5
I7
I1
I78
I20161130
tp260
I50257
s(I5
I7
I2
I34
I20161130
tp261
I50312
s(I5
I7
I6
I60
I20161130
tp262
I50160
s(I5
I7
I5
I25
I20161130
tp263
I50024
s(I5
I7
I1
I23
I20161130
tp264
I50202
s(I5
I7
I5
I100
I20161130
tp265
I50099
s(I5
I5
I1
I77
I20161031
tp266
I50418
s(I5
I7
I1
I38
I20161130
tp267
I50217
s(I5
I7
I2
I46
I20161130
tp268
I50324
s(I5
I7
I1
I20
I20161130
tp269
I50199
s(I5
I7
I1
I85
I20161130
tp270
I50264
s(I5
I7
I5
I43
I20161130
tp271
I50042
s(I5
I7
I2
I39
I20161130
tp272
I50317
s(I5
I7
I5
I4
I20161130
tp273
I50003
s(I5
I5
I1
I69
I20161031
tp274
I50410
s(I5
I7
I1
I7
I20161130
tp275
I50186
s(I5
I5
I1
I73
I20161031
tp276
I50414
s(I5
I7
I1
I88
I20161130
tp277
I50267
s(I5
I7
I5
I26
I20161130
tp278
I50025
s(I5
I7
I6
I2
I20161130
tp279
I50102
s(I5
I7
I5
I91
I20161130
tp280
I50090
s(I5
I7
I1
I25
I20161130
tp281
I50204
s(I5
I7
I2
I45
I20161130
tp282
I50323
s(I5
I7
I1
I48
I20161130
tp283
I50227
s(I5
I7
I5
I14
I20161130
tp284
I50013
s(I5
I5
I1
I63
I20161031
tp285
I50404
s(I5
I7
I1
I99
I20161130
tp286
I50278
s(I5
I7
I1
I81
I20161130
tp287
I50260
s(I5
I7
I1
I72
I20161130
tp288
I50251
s(I5
I5
I1
I98
I20161031
tp289
I50439
s(I5
I7
I5
I70
I20161130
tp290
I50069
s(I5
I7
I2
I12
I20161130
tp291
I50290
s(I5
I5
I1
I22
I20161031
tp292
I50363
s(I5
I7
I6
I14
I20161130
tp293
I50114
s(I5
I5
I1
I55
I20161031
tp294
I50396
s(I5
I7
I2
I57
I20161130
tp295
I50335
s(I5
I5
I1
I59
I20161031
tp296
I50400
s(I5
I7
I1
I91
I20161130
tp297
I50270
s(I5
I7
I2
I59
I20161130
tp298
I50337
s(I5
I7
I2
I15
I20161130
tp299
I50293
s(I5
I7
I1
I70
I20161130
tp300
I50249
s(I5
I7
I1
I77
I20161130
tp301
I50256
s(I5
I7
I2
I48
I20161130
tp302
I50326
s(I5
I5
I1
I51
I20161031
tp303
I50392
s(I5
I7
I6
I21
I20161130
tp304
I50121
s(I5
I7
I5
I64
I20161130
tp305
I50063
s(I5
I7
I6
I76
I20161130
tp306
I50176
s(I5
I7
I1
I39
I20161130
tp307
I50218
s(I5
I7
I2
I63
I20161130
tp308
I50341
s(I5
I7
I6
I49
I20161130
tp309
I50149
s(I5
I5
I1
I30
I20161031
tp310
I50371
s(I5
I7
I5
I58
I20161130
tp311
I50057
s(I5
I7
I1
I37
I20161130
tp312
I50216
s(I5
I7
I1
I57
I20161130
tp313
I50236
s(I5
I7
I1
I80
I20161130
tp314
I50259
s(I5
I7
I2
I30
I20161130
tp315
I50308
s(I5
I7
I6
I16
I20161130
tp316
I50116
s(I5
I7
I5
I27
I20161130
tp317
I50026
s(I5
I7
I6
I33
I20161130
tp318
I50133
s(I5
I5
I1
I66
I20161031
tp319
I50407
s(I5
I7
I6
I19
I20161130
tp320
I50119
s(I5
I7
I2
I44
I20161130
tp321
I50322
s(I5
I7
I1
I41
I20161130
tp322
I50220
s(I5
I7
I5
I39
I20161130
tp323
I50038
s(I5
I7
I6
I7
I20161130
tp324
I50107
s(I5
I7
I5
I94
I20161130
tp325
I50093
s(I5
I7
I5
I21
I20161130
tp326
I50020
s(I5
I7
I5
I12
I20161130
tp327
I50011
s(I5
I7
I2
I4
I20161130
tp328
I50282
s(I5
I5
I1
I27
I20161031
tp329
I50368
s(I5
I7
I5
I101
I20161130
tp330
I50100
s(I5
I5
I1
I78
I20161031
tp331
I50419
s(I5
I7
I2
I29
I20161130
tp332
I50307
s(I5
I7
I1
I44
I20161130
tp333
I50223
s(I5
I7
I6
I30
I20161130
tp334
I50130
s(I5
I7
I5
I87
I20161130
tp335
I50086
s(I5
I7
I6
I55
I20161130
tp336
I50155
s(I5
I7
I2
I9
I20161130
tp337
I50287
s(I5
I5
I1
I19
I20161031
tp338
I50360
s(I5
I7
I5
I5
I20161130
tp339
I50004
s(I5
I7
I1
I27
I20161130
tp340
I50206
s(I5
I7
I1
I50
I20161130
tp341
I50229
s(I5
I7
I5
I96
I20161130
tp342
I50095
s(I5
I7
I5
I9
I20161130
tp343
I50008
s(I5
I7
I6
I69
I20161130
tp344
I50169
s(I5
I5
I1
I56
I20161031
tp345
I50397
s(I5
I7
I5
I88
I20161130
tp346
I50087
s(I5
I7
I1
I86
I20161130
tp347
I50265
s(I5
I5
I1
I44
I20161031
tp348
I50385
s(I5
I7
I1
I4
I20161130
tp349
I50183
s(I5
I7
I1
I69
I20161130
tp350
I50248
s(I5
I7
I1
I11
I20161130
tp351
I50190
s(I5
I5
I1
I48
I20161031
tp352
I50389
s(I5
I7
I5
I57
I20161130
tp353
I50056
s(I5
I7
I1
I55
I20161130
tp354
I50234
s(I5
I5
I1
I36
I20161031
tp355
I50377
s(I5
I7
I6
I65
I20161130
tp356
I50165
s(I5
I7
I1
I52
I20161130
tp357
I50231
s(I5
I7
I5
I10
I20161130
tp358
I50009
s(I5
I7
I5
I75
I20161130
tp359
I50074
s(I5
I5
I1
I86
I20161031
tp360
I50427
s(I5
I7
I6
I67
I20161130
tp361
I50167
s(I5
I7
I1
I32
I20161130
tp362
I50211
s(I5
I7
I2
I36
I20161130
tp363
I50314
s(I5
I7
I1
I21
I20161130
tp364
I50200
s(I5
I7
I2
I61
I20161130
tp365
I50339
s(I5
I7
I6
I34
I20161130
tp366
I50134
s(I5
I5
I1
I79
I20161031
tp367
I50420
s(I5
I7
I6
I62
I20161130
tp368
I50162
s(I5
I7
I5
I46
I20161130
tp369
I50045
s(I5
I7
I5
I28
I20161130
tp370
I50027
s(I5
I7
I6
I24
I20161130
tp371
I50124
s(I5
I7
I1
I98
I20161130
tp372
I50277
s(I5
I5
I1
I24
I20161031
tp373
I50365
s(I5
I7
I1
I19
I20161130
tp374
I50198
s(I5
I5
I1
I75
I20161031
tp375
I50416
s(I5
I7
I6
I46
I20161130
tp376
I50146
s(I5
I7
I2
I32
I20161130
tp377
I50310
s(I5
I7
I2
I18
I20161130
tp378
I50296
s(I5
I7
I1
I43
I20161130
tp379
I50222
s(I5
I7
I2
I11
I20161130
tp380
I50289
s(I5
I7
I1
I2
I20161130
tp381
I50181
s(I5
I5
I1
I16
I20161031
tp382
I50357
s(I5
I7
I5
I24
I20161130
tp383
I50023
s(I5
I7
I1
I22
I20161130
tp384
I50201
s(I5
I7
I5
I89
I20161130
tp385
I50088
s(I5
I5
I1
I4
I20161031
tp386
I50345
s(I5
I7
I2
I47
I20161130
tp387
I50325
s(I5
I5
I1
I37
I20161031
tp388
I50378
s(I5
I7
I1
I84
I20161130
tp389
I50263
s(I5
I7
I6
I6
I20161130
tp390
I50106
s(I5
I5
I1
I41
I20161031
tp391
I50382
s(I5
I7
I2
I24
I20161130
tp392
I50302
s(I5
I7
I2
I49
I20161130
tp393
I50327
s(I5
I7
I1
I6
I20161130
tp394
I50185
s(I5
I5
I1
I28
I20161031
tp395
I50369
s(I5
I7
I2
I14
I20161130
tp396
I50292
s(I5
I7
I1
I71
I20161130
tp397
I50250
s(I5
I7
I1
I53
I20161130
tp398
I50232
s(I5
I5
I1
I61
I20161031
tp399
I50402
s(I5
I7
I6
I3
I20161130
tp400
I50103
s(I5
I7
I5
I90
I20161130
tp401
I50089
s(I5
I7
I6
I66
I20161130
tp402
I50166
s(I5
I7
I2
I8
I20161130
tp403
I50286
s(I5
I7
I1
I89
I20161130
tp404
I50268
s(I5
I7
I5
I78
I20161130
tp405
I50077
s(I5
I5
I1
I83
I20161031
tp406
I50424
s(I5
I7
I6
I58
I20161130
tp407
I50158
s(I5
I7
I2
I52
I20161130
tp408
I50330
s(I5
I7
I1
I63
I20161130
tp409
I50242
s(I5
I7
I6
I51
I20161130
tp410
I50151
s(I5
I7
I2
I13
I20161130
tp411
I50291
s(I5
I7
I1
I16
I20161130
tp412
I50195
s(I5
I7
I1
I73
I20161130
tp413
I50252
s(I5
I7
I5
I71
I20161130
tp414
I50070
s(I5
I7
I6
I39
I20161130
tp415
I50139
s(I5
I7
I5
I53
I20161130
tp416
I50052
s(I5
I7
I5
I44
I20161130
tp417
I50043
s(I5
I7
I1
I34
I20161130
tp418
I50213
s(I5
I7
I2
I22
I20161130
tp419
I50300
s(I5
I5
I1
I100
I20161031
tp420
I50441
s(I5
I7
I1
I26
I20161130
tp421
I50205
s(I5
I7
I5
I72
I20161130
tp422
I50071
s(I5
I5
I1
I5
I20161031
tp423
I50346
s(I5
I7
I2
I41
I20161130
tp424
I50319
s(I5
I7
I5
I37
I20161130
tp425
I50036
s(I5
I7
I1
I59
I20161130
tp426
I50238
s(I5
I7
I2
I27
I20161130
tp427
I50305
s(I5
I7
I1
I82
I20161130
tp428
I50261
s(I5
I5
I1
I72
I20161031
tp429
I50413
s(I5
I7
I5
I41
I20161130
tp430
I50040
s(I5
I7
I6
I20
I20161130
tp431
I50120
s(I5
I5
I1
I29
I20161031
tp432
I50370
s(I5
I7
I1
I36
I20161130
tp433
I50215
s(I5
I5
I1
I1
I20161031
tp434
I50342
s(I5
I7
I2
I40
I20161130
tp435
I50318
s(I5
I5
I1
I34
I20161031
tp436
I50375
s(I5
I7
I2
I1
I20161130
tp437
I50279
s(I5
I7
I6
I27
I20161130
tp438
I50127
s(I5
I7
I2
I21
I20161130
tp439
I50299
s(I5
I7
I1
I87
I20161130
tp440
I50266
s(I5
I7
I1
I5
I20161130
tp441
I50184
s(I5
I5
I1
I25
I20161031
tp442
I50366
s(I5
I7
I5
I42
I20161130
tp443
I50041
s(I5
I5
I1
I58
I20161031
tp444
I50399
s(I5
I5
I1
I46
I20161031
tp445
I50387
s(I5
I7
I1
I64
I20161130
tp446
I50243
s.