(dp0
(I9
I7
I1
I100
I20161130
tp1
I90448
s(I9
I5
I1
I101
I20161022
tp2
I90100
s(I9
I5
I1
I55
I20161022
tp3
I90054
s(I9
I5
I1
I1
I20161022
tp4
I90000
s(I9
I7
I6
I34
I20161130
tp5
I90300
s(I9
I5
I1
I110
I20161022
tp6
I90109
s(I9
I5
I2
I7
I20161022
tp7
I90127
s(I9
I7
I5
I68
I20161130
tp8
I90234
s(I9
I6
I2
I27
I20161023
tp9
I90160
s(I9
I5
I1
I109
I20161022
tp10
I90108
s(I9
I7
I6
I19
I20161130
tp11
I90285
s(I9
I5
I2
I8
I20161022
tp12
I90128
s(I9
I7
I5
I90
I20161130
tp13
I90256
s(I9
I5
I1
I63
I20161022
tp14
I90062
s(I9
I5
I1
I9
I20161022
tp15
I90008
s(I9
I7
I6
I39
I20161130
tp16
I90305
s(I9
I5
I1
I118
I20161022
tp17
I90117
s(I9
I7
I1
I97
I20161130
tp18
I90445
s(I9
I5
I1
I64
I20161022
tp19
I90063
s(I9
I5
I1
I18
I20161022
tp20
I90017
s(I9
I7
I6
I57
I20161130
tp21
I90323
s(I9
I7
I1
I11
I20161130
tp22
I90359
s(I9
I7
I6
I23
I20161130
tp23
I90289
s(I9
I5
I1
I72
I20161022
tp24
I90071
s(I9
I5
I1
I26
I20161022
tp25
I90025
s(I9
I7
I1
I18
I20161130
tp26
I90366
s(I9
I7
I5
I13
I20161130
tp27
I90179
s(I9
I7
I5
I17
I20161130
tp28
I90183
s(I9
I7
I6
I60
I20161130
tp29
I90326
s(I9
I6
I2
I3
I20161023
tp30
I90136
s(I9
I6
I2
I24
I20161023
tp31
I90157
s(I9
I7
I5
I55
I20161130
tp32
I90221
s(I9
I7
I6
I13
I20161130
tp33
I90279
s(I9
I7
I6
I76
I20161130
tp34
I90342
s(I9
I7
I6
I63
I20161130
tp35
I90329
s(I9
I5
I1
I87
I20161022
tp36
I90086
s(I9
I7
I5
I1
I20161130
tp37
I90167
s(I9
I7
I1
I15
I20161130
tp38
I90363
s(I9
I7
I1
I61
I20161130
tp39
I90409
s(I9
I7
I1
I36
I20161130
tp40
I90384
s(I9
I6
I2
I16
I20161023
tp41
I90149
s(I9
I7
I6
I44
I20161130
tp42
I90310
s(I9
I7
I6
I65
I20161130
tp43
I90331
s(I9
I7
I1
I77
I20161130
tp44
I90425
s(I9
I7
I5
I83
I20161130
tp45
I90249
s(I9
I5
I1
I95
I20161022
tp46
I90094
s(I9
I5
I1
I41
I20161022
tp47
I90040
s(I9
I7
I1
I65
I20161130
tp48
I90413
s(I9
I7
I6
I50
I20161130
tp49
I90316
s(I9
I5
I1
I96
I20161022
tp50
I90095
s(I9
I7
I6
I27
I20161130
tp51
I90293
s(I9
I5
I1
I50
I20161022
tp52
I90049
s(I9
I7
I5
I41
I20161130
tp53
I90207
s(I9
I7
I1
I55
I20161130
tp54
I90403
s(I9
I7
I1
I30
I20161130
tp55
I90378
s(I9
I7
I5
I76
I20161130
tp56
I90242
s(I9
I7
I6
I72
I20161130
tp57
I90338
s(I9
I5
I1
I103
I20161022
tp58
I90102
s(I9
I7
I5
I67
I20161130
tp59
I90233
s(I9
I7
I1
I33
I20161130
tp60
I90381
s(I9
I5
I1
I49
I20161022
tp61
I90048
s(I9
I5
I1
I3
I20161022
tp62
I90002
s(I9
I5
I1
I104
I20161022
tp63
I90103
s(I9
I5
I2
I5
I20161022
tp64
I90125
s(I9
I5
I1
I58
I20161022
tp65
I90057
s(I9
I5
I1
I4
I20161022
tp66
I90003
s(I9
I7
I6
I71
I20161130
tp67
I90337
s(I9
I7
I1
I39
I20161130
tp68
I90387
s(I9
I7
I1
I66
I20161130
tp69
I90414
s(I9
I7
I5
I21
I20161130
tp70
I90187
s(I9
I7
I1
I27
I20161130
tp71
I90375
s(I9
I6
I2
I17
I20161023
tp72
I90150
s(I9
I5
I1
I12
I20161022
tp73
I90011
s(I9
I7
I5
I28
I20161130
tp74
I90194
s(I9
I7
I1
I34
I20161130
tp75
I90382
s(I9
I7
I5
I93
I20161130
tp76
I90259
s(I9
I7
I1
I99
I20161130
tp77
I90447
s(I9
I7
I5
I8
I20161130
tp78
I90174
s(I9
I7
I6
I12
I20161130
tp79
I90278
s(I9
I6
I2
I9
I20161023
tp80
I90142
s(I9
I7
I1
I57
I20161130
tp81
I90405
s(I9
I7
I1
I84
I20161130
tp82
I90432
s(I9
I7
I6
I14
I20161130
tp83
I90280
s(I9
I7
I5
I87
I20161130
tp84
I90253
s(I9
I5
I1
I27
I20161022
tp85
I90026
s(I9
I7
I6
I18
I20161130
tp86
I90284
s(I9
I7
I5
I91
I20161130
tp87
I90257
s(I9
I7
I1
I6
I20161130
tp88
I90354
s(I9
I6
I2
I1
I20161023
tp89
I90134
s(I9
I6
I2
I30
I20161023
tp90
I90163
s(I9
I7
I1
I52
I20161130
tp91
I90400
s(I9
I7
I1
I93
I20161130
tp92
I90441
s(I9
I7
I1
I68
I20161130
tp93
I90416
s(I9
I7
I5
I74
I20161130
tp94
I90240
s(I9
I5
I1
I81
I20161022
tp95
I90080
s(I9
I7
I5
I59
I20161130
tp96
I90225
s(I9
I5
I1
I35
I20161022
tp97
I90034
s(I9
I7
I1
I80
I20161130
tp98
I90428
s(I9
I5
I1
I90
I20161022
tp99
I90089
s(I9
I7
I6
I2
I20161130
tp100
I90268
s(I9
I5
I1
I36
I20161022
tp101
I90035
s(I9
I7
I1
I7
I20161130
tp102
I90355
s(I9
I7
I1
I46
I20161130
tp103
I90394
s(I9
I7
I5
I52
I20161130
tp104
I90218
s(I9
I7
I1
I58
I20161130
tp105
I90406
s(I9
I7
I6
I80
I20161130
tp106
I90346
s(I9
I7
I6
I7
I20161130
tp107
I90273
s(I9
I7
I5
I78
I20161130
tp108
I90244
s(I9
I7
I6
I70
I20161130
tp109
I90336
s(I9
I5
I1
I44
I20161022
tp110
I90043
s(I9
I7
I6
I48
I20161130
tp111
I90314
s(I9
I7
I6
I25
I20161130
tp112
I90291
s(I9
I7
I1
I42
I20161130
tp113
I90390
s(I9
I7
I6
I64
I20161130
tp114
I90330
s(I9
I6
I2
I6
I20161023
tp115
I90139
s(I9
I7
I1
I25
I20161130
tp116
I90373
s(I9
I6
I2
I31
I20161023
tp117
I90164
s(I9
I7
I6
I47
I20161130
tp118
I90313
s(I9
I5
I1
I105
I20161022
tp119
I90104
s(I9
I7
I6
I32
I20161130
tp120
I90298
s(I9
I7
I6
I69
I20161130
tp121
I90335
s(I9
I7
I5
I88
I20161130
tp122
I90254
s(I9
I7
I1
I102
I20161130
tp123
I90450
s(I9
I6
I2
I33
I20161023
tp124
I90166
s(I9
I6
I2
I23
I20161023
tp125
I90156
s(I9
I7
I6
I28
I20161130
tp126
I90294
s(I9
I7
I5
I23
I20161130
tp127
I90189
s(I9
I5
I1
I113
I20161022
tp128
I90112
s(I9
I7
I6
I31
I20161130
tp129
I90297
s(I9
I5
I2
I12
I20161022
tp130
I90132
s(I9
I7
I1
I60
I20161130
tp131
I90408
s(I9
I5
I1
I67
I20161022
tp132
I90066
s(I9
I5
I1
I13
I20161022
tp133
I90012
s(I9
I7
I1
I101
I20161130
tp134
I90449
s(I9
I7
I6
I11
I20161130
tp135
I90277
s(I9
I5
I1
I68
I20161022
tp136
I90067
s(I9
I7
I5
I25
I20161130
tp137
I90191
s(I9
I7
I6
I8
I20161130
tp138
I90274
s(I9
I5
I1
I22
I20161022
tp139
I90021
s(I9
I7
I1
I14
I20161130
tp140
I90362
s(I9
I7
I5
I15
I20161130
tp141
I90181
s(I9
I7
I6
I62
I20161130
tp142
I90328
s(I9
I5
I1
I121
I20161022
tp143
I90120
s(I9
I5
I1
I75
I20161022
tp144
I90074
s(I9
I5
I1
I21
I20161022
tp145
I90020
s(I9
I7
I5
I50
I20161130
tp146
I90216
s(I9
I7
I1
I96
I20161130
tp147
I90444
s(I9
I5
I1
I76
I20161022
tp148
I90075
s(I9
I5
I1
I30
I20161022
tp149
I90029
s(I9
I7
I5
I9
I20161130
tp150
I90175
s(I9
I7
I1
I23
I20161130
tp151
I90371
s(I9
I5
I1
I53
I20161022
tp152
I90052
s(I9
I7
I5
I5
I20161130
tp153
I90171
s(I9
I7
I6
I73
I20161130
tp154
I90339
s(I9
I7
I6
I56
I20161130
tp155
I90322
s(I9
I7
I6
I29
I20161130
tp156
I90295
s(I9
I6
I2
I20
I20161023
tp157
I90153
s(I9
I7
I5
I94
I20161130
tp158
I90260
s(I9
I5
I1
I38
I20161022
tp159
I90037
s(I9
I7
I5
I12
I20161130
tp160
I90178
s(I9
I7
I5
I77
I20161130
tp161
I90243
s(I9
I7
I6
I41
I20161130
tp162
I90307
s(I9
I7
I6
I61
I20161130
tp163
I90327
s(I9
I6
I2
I12
I20161023
tp164
I90145
s(I9
I7
I1
I41
I20161130
tp165
I90389
s(I9
I7
I6
I77
I20161130
tp166
I90343
s(I9
I7
I5
I6
I20161130
tp167
I90172
s(I9
I5
I1
I99
I20161022
tp168
I90098
s(I9
I7
I5
I71
I20161130
tp169
I90237
s(I9
I5
I1
I45
I20161022
tp170
I90044
s(I9
I7
I1
I69
I20161130
tp171
I90417
s(I9
I6
I2
I4
I20161023
tp172
I90137
s(I9
I7
I6
I45
I20161130
tp173
I90311
s(I9
I6
I2
I29
I20161023
tp174
I90162
s(I9
I7
I6
I30
I20161130
tp175
I90296
s(I9
I7
I5
I39
I20161130
tp176
I90205
s(I9
I5
I1
I107
I20161022
tp177
I90106
s(I9
I5
I2
I2
I20161022
tp178
I90122
s(I9
I7
I1
I37
I20161130
tp179
I90385
s(I9
I7
I5
I43
I20161130
tp180
I90209
s(I9
I7
I5
I18
I20161130
tp181
I90184
s(I9
I5
I1
I7
I20161022
tp182
I90006
s(I9
I5
I1
I108
I20161022
tp183
I90107
s(I9
I5
I2
I9
I20161022
tp184
I90129
s(I9
I5
I1
I62
I20161022
tp185
I90061
s(I9
I5
I1
I8
I20161022
tp186
I90007
s(I9
I7
I5
I16
I20161130
tp187
I90182
s(I9
I7
I1
I21
I20161130
tp188
I90369
s(I9
I7
I6
I20
I20161130
tp189
I90286
s(I9
I7
I5
I36
I20161130
tp190
I90202
s(I9
I5
I1
I98
I20161022
tp191
I90097
s(I9
I5
I1
I15
I20161022
tp192
I90014
s(I9
I7
I5
I27
I20161130
tp193
I90193
s(I9
I7
I6
I59
I20161130
tp194
I90325
s(I9
I5
I1
I116
I20161022
tp195
I90115
s(I9
I5
I1
I70
I20161022
tp196
I90069
s(I9
I7
I1
I62
I20161130
tp197
I90410
s(I9
I5
I1
I16
I20161022
tp198
I90015
s(I9
I7
I6
I9
I20161130
tp199
I90275
s(I9
I7
I5
I20
I20161130
tp200
I90186
s(I9
I7
I1
I26
I20161130
tp201
I90374
s(I9
I7
I5
I85
I20161130
tp202
I90251
s(I9
I7
I1
I91
I20161130
tp203
I90439
s(I9
I6
I2
I5
I20161023
tp204
I90138
s(I9
I7
I6
I49
I20161130
tp205
I90315
s(I9
I7
I1
I88
I20161130
tp206
I90436
s(I9
I7
I6
I16
I20161130
tp207
I90282
s(I9
I7
I5
I53
I20161130
tp208
I90219
s(I9
I7
I1
I59
I20161130
tp209
I90407
s(I9
I7
I5
I72
I20161130
tp210
I90238
s(I9
I7
I1
I10
I20161130
tp211
I90358
s(I9
I7
I1
I17
I20161130
tp212
I90365
s(I9
I6
I2
I26
I20161023
tp213
I90159
s(I9
I7
I1
I56
I20161130
tp214
I90404
s(I9
I7
I5
I7
I20161130
tp215
I90173
s(I9
I7
I6
I15
I20161130
tp216
I90281
s(I9
I7
I5
I86
I20161130
tp217
I90252
s(I9
I5
I1
I85
I20161022
tp218
I90084
s(I9
I7
I1
I44
I20161130
tp219
I90392
s(I9
I7
I6
I78
I20161130
tp220
I90344
s(I9
I5
I1
I39
I20161022
tp221
I90038
s(I9
I7
I5
I47
I20161130
tp222
I90213
s(I9
I7
I1
I85
I20161130
tp223
I90433
s(I9
I5
I1
I94
I20161022
tp224
I90093
s(I9
I7
I5
I66
I20161130
tp225
I90232
s(I9
I5
I1
I40
I20161022
tp226
I90039
s(I9
I7
I5
I54
I20161130
tp227
I90220
s(I9
I7
I6
I46
I20161130
tp228
I90312
s(I9
I5
I1
I93
I20161022
tp229
I90092
s(I9
I5
I1
I47
I20161022
tp230
I90046
s(I9
I7
I1
I28
I20161130
tp231
I90376
s(I9
I7
I5
I34
I20161130
tp232
I90200
s(I9
I5
I1
I102
I20161022
tp233
I90101
s(I9
I7
I6
I66
I20161130
tp234
I90332
s(I9
I5
I1
I48
I20161022
tp235
I90047
s(I9
I7
I5
I75
I20161130
tp236
I90241
s(I9
I5
I1
I2
I20161022
tp237
I90001
s(I9
I7
I5
I96
I20161130
tp238
I90262
s(I9
I7
I6
I36
I20161130
tp239
I90302
s(I9
I7
I6
I40
I20161130
tp240
I90306
s(I9
I7
I6
I17
I20161130
tp241
I90283
s(I9
I6
I2
I2
I20161023
tp242
I90135
s(I9
I7
I1
I64
I20161130
tp243
I90412
s(I9
I5
I1
I56
I20161022
tp244
I90055
s(I9
I5
I1
I10
I20161022
tp245
I90009
s(I9
I7
I1
I53
I20161130
tp246
I90401
s(I9
I7
I1
I94
I20161130
tp247
I90442
s(I9
I7
I5
I101
I20161130
tp248
I90266
s(I9
I6
I2
I19
I20161023
tp249
I90152
s(I9
I7
I6
I24
I20161130
tp250
I90290
s(I9
I5
I1
I117
I20161022
tp251
I90116
s(I9
I5
I1
I71
I20161022
tp252
I90070
s(I9
I5
I1
I17
I20161022
tp253
I90016
s(I9
I6
I2
I11
I20161023
tp254
I90144
s(I9
I7
I5
I22
I20161130
tp255
I90188
s(I9
I7
I1
I9
I20161130
tp256
I90357
s(I9
I5
I1
I79
I20161022
tp257
I90078
s(I9
I5
I1
I25
I20161022
tp258
I90024
s(I9
I7
I6
I54
I20161130
tp259
I90320
s(I9
I5
I1
I80
I20161022
tp260
I90079
s(I9
I7
I6
I75
I20161130
tp261
I90341
s(I9
I7
I1
I51
I20161130
tp262
I90399
s(I9
I5
I1
I34
I20161022
tp263
I90033
s(I9
I7
I6
I4
I20161130
tp264
I90270
s(I9
I5
I1
I33
I20161022
tp265
I90032
s(I9
I7
I1
I5
I20161130
tp266
I90353
s(I9
I7
I5
I11
I20161130
tp267
I90177
s(I9
I7
I6
I43
I20161130
tp268
I90309
s(I9
I7
I5
I57
I20161130
tp269
I90223
s(I9
I5
I1
I88
I20161022
tp270
I90087
s(I9
I7
I5
I32
I20161130
tp271
I90198
s(I9
I5
I1
I42
I20161022
tp272
I90041
s(I9
I7
I6
I82
I20161130
tp273
I90348
s(I9
I7
I5
I73
I20161130
tp274
I90239
s(I9
I7
I1
I87
I20161130
tp275
I90435
s(I9
I7
I6
I53
I20161130
tp276
I90319
s(I9
I7
I5
I4
I20161130
tp277
I90170
s(I9
I7
I5
I69
I20161130
tp278
I90235
s(I9
I6
I2
I8
I20161023
tp279
I90141
s(I9
I7
I6
I33
I20161130
tp280
I90299
s(I9
I7
I1
I45
I20161130
tp281
I90393
s(I9
I7
I5
I51
I20161130
tp282
I90217
s(I9
I7
I5
I26
I20161130
tp283
I90192
s(I9
I7
I1
I72
I20161130
tp284
I90420
s(I9
I7
I1
I40
I20161130
tp285
I90388
s(I9
I7
I1
I71
I20161130
tp286
I90419
s(I9
I7
I5
I37
I20161130
tp287
I90203
s(I9
I6
I2
I25
I20161023
tp288
I90158
s(I9
I7
I5
I35
I20161130
tp289
I90201
s(I9
I5
I1
I111
I20161022
tp290
I90110
s(I9
I7
I5
I70
I20161130
tp291
I90236
s(I9
I5
I2
I6
I20161022
tp292
I90126
s(I9
I5
I1
I57
I20161022
tp293
I90056
s(I9
I5
I1
I11
I20161022
tp294
I90010
s(I9
I7
I5
I31
I20161130
tp295
I90197
s(I9
I5
I1
I112
I20161022
tp296
I90111
s(I9
I5
I2
I13
I20161022
tp297
I90133
s(I9
I5
I1
I66
I20161022
tp298
I90065
s(I9
I7
I1
I24
I20161130
tp299
I90372
s(I9
I7
I5
I38
I20161130
tp300
I90204
s(I9
I7
I1
I89
I20161130
tp301
I90437
s(I9
I5
I1
I119
I20161022
tp302
I90118
s(I9
I5
I1
I65
I20161022
tp303
I90064
s(I9
I7
I1
I12
I20161130
tp304
I90360
s(I9
I5
I1
I19
I20161022
tp305
I90018
s(I9
I5
I1
I120
I20161022
tp306
I90119
s(I9
I5
I1
I74
I20161022
tp307
I90073
s(I9
I7
I5
I61
I20161130
tp308
I90227
s(I9
I5
I1
I20
I20161022
tp309
I90019
s(I9
I5
I1
I73
I20161022
tp310
I90072
s(I9
I7
I5
I80
I20161130
tp311
I90246
s(I9
I7
I6
I21
I20161130
tp312
I90287
s(I9
I7
I1
I83
I20161130
tp313
I90431
s(I9
I7
I1
I95
I20161130
tp314
I90443
s(I9
I7
I5
I2
I20161130
tp315
I90168
s(I9
I5
I1
I82
I20161022
tp316
I90081
s(I9
I7
I5
I48
I20161130
tp317
I90214
s(I9
I5
I1
I28
I20161022
tp318
I90027
s(I9
I7
I6
I52
I20161130
tp319
I90318
s(I9
I7
I5
I89
I20161130
tp320
I90255
s(I9
I7
I5
I64
I20161130
tp321
I90230
s(I9
I7
I1
I78
I20161130
tp322
I90426
s(I9
I7
I1
I63
I20161130
tp323
I90411
s(I9
I7
I5
I84
I20161130
tp324
I90250
s(I9
I6
I2
I32
I20161023
tp325
I90165
s(I9
I6
I2
I22
I20161023
tp326
I90155
s(I9
I7
I6
I58
I20161130
tp327
I90324
s(I9
I7
I5
I3
I20161130
tp328
I90169
s(I9
I7
I6
I35
I20161130
tp329
I90301
s(I9
I7
I5
I42
I20161130
tp330
I90208
s(I9
I5
I1
I89
I20161022
tp331
I90088
s(I9
I7
I1
I48
I20161130
tp332
I90396
s(I9
I7
I6
I74
I20161130
tp333
I90340
s(I9
I7
I5
I62
I20161130
tp334
I90228
s(I9
I5
I1
I43
I20161022
tp335
I90042
s(I9
I7
I1
I74
I20161130
tp336
I90422
s(I9
I6
I2
I14
I20161023
tp337
I90147
s(I9
I7
I1
I75
I20161130
tp338
I90423
s(I9
I7
I6
I42
I20161130
tp339
I90308
s(I9
I5
I1
I97
I20161022
tp340
I90096
s(I9
I7
I6
I79
I20161130
tp341
I90345
s(I9
I5
I1
I51
I20161022
tp342
I90050
s(I9
I7
I5
I46
I20161130
tp343
I90212
s(I9
I7
I6
I38
I20161130
tp344
I90304
s(I9
I5
I1
I106
I20161022
tp345
I90105
s(I9
I5
I2
I3
I20161022
tp346
I90123
s(I9
I7
I5
I29
I20161130
tp347
I90195
s(I9
I5
I1
I52
I20161022
tp348
I90051
s(I9
I5
I1
I6
I20161022
tp349
I90005
s(I9
I5
I2
I4
I20161022
tp350
I90124
s(I9
I5
I1
I59
I20161022
tp351
I90058
s(I9
I5
I1
I5
I20161022
tp352
I90004
s(I9
I7
I1
I92
I20161130
tp353
I90440
s(I9
I7
I5
I98
I20161130
tp354
I90263
s(I9
I5
I1
I114
I20161022
tp355
I90113
s(I9
I5
I2
I11
I20161022
tp356
I90131
s(I9
I7
I6
I22
I20161130
tp357
I90288
s(I9
I5
I1
I60
I20161022
tp358
I90059
s(I9
I5
I1
I14
I20161022
tp359
I90013
s(I9
I7
I1
I19
I20161130
tp360
I90367
s(I9
I7
I6
I37
I20161130
tp361
I90303
s(I9
I7
I5
I56
I20161130
tp362
I90222
s(I9
I6
I2
I15
I20161023
tp363
I90148
s(I9
I7
I1
I29
I20161130
tp364
I90377
s(I9
I7
I1
I4
I20161130
tp365
I90352
s(I9
I7
I5
I10
I20161130
tp366
I90176
s(I9
I7
I1
I54
I20161130
tp367
I90402
s(I9
I7
I5
I100
I20161130
tp368
I90265
s(I9
I6
I2
I7
I20161023
tp369
I90140
s(I9
I6
I2
I28
I20161023
tp370
I90161
s(I9
I7
I6
I1
I20161130
tp371
I90267
s(I9
I7
I5
I44
I20161130
tp372
I90210
s(I9
I7
I5
I19
I20161130
tp373
I90185
s(I9
I7
I6
I51
I20161130
tp374
I90317
s(I9
I5
I1
I83
I20161022
tp375
I90082
s(I9
I5
I1
I29
I20161022
tp376
I90028
s(I9
I7
I6
I67
I20161130
tp377
I90333
s(I9
I7
I1
I1
I20161130
tp378
I90349
s(I9
I5
I1
I84
I20161022
tp379
I90083
s(I9
I7
I1
I90
I20161130
tp380
I90438
s(I9
I7
I1
I8
I20161130
tp381
I90356
s(I9
I7
I1
I73
I20161130
tp382
I90421
s(I9
I5
I1
I91
I20161022
tp383
I90090
s(I9
I5
I1
I37
I20161022
tp384
I90036
s(I9
I7
I6
I55
I20161130
tp385
I90321
s(I9
I5
I1
I92
I20161022
tp386
I90091
s(I9
I5
I1
I46
I20161022
tp387
I90045
s(I9
I7
I5
I45
I20161130
tp388
I90211
s(I9
I7
I1
I2
I20161130
tp389
I90350
s(I9
I7
I1
I67
I20161130
tp390
I90415
s(I9
I7
I5
I65
I20161130
tp391
I90231
s(I9
I5
I1
I100
I20161022
tp392
I90099
s(I9
I5
I2
I1
I20161022
tp393
I90121
s(I9
I5
I1
I54
I20161022
tp394
I90053
s(I9
I7
I1
I35
I20161130
tp395
I90383
s(I9
I7
I5
I33
I20161130
tp396
I90199
s(I9
I7
I1
I47
I20161130
tp397
I90395
s(I9
I7
I5
I82
I20161130
tp398
I90248
s(I9
I7
I1
I22
I20161130
tp399
I90370
s(I9
I6
I2
I21
I20161023
tp400
I90154
s(I9
I7
I1
I20
I20161130
tp401
I90368
s(I9
I5
I1
I115
I20161022
tp402
I90114
s(I9
I5
I2
I10
I20161022
tp403
I90130
s(I9
I7
I1
I32
I20161130
tp404
I90380
s(I9
I5
I1
I61
I20161022
tp405
I90060
s(I9
I7
I1
I31
I20161130
tp406
I90379
s(I9
I6
I2
I13
I20161023
tp407
I90146
s(I9
I7
I5
I58
I20161130
tp408
I90224
s(I9
I7
I1
I86
I20161130
tp409
I90434
s(I9
I7
I6
I81
I20161130
tp410
I90347
s(I9
I7
I6
I26
I20161130
tp411
I90292
s(I9
I7
I5
I99
I20161130
tp412
I90264
s(I9
I7
I6
I3
I20161130
tp413
I90269
s(I9
I7
I1
I13
I20161130
tp414
I90361
s(I9
I5
I1
I69
I20161022
tp415
I90068
s(I9
I7
I1
I16
I20161130
tp416
I90364
s(I9
I5
I1
I23
I20161022
tp417
I90022
s(I9
I7
I5
I30
I20161130
tp418
I90196
s(I9
I7
I1
I81
I20161130
tp419
I90429
s(I9
I7
I5
I95
I20161130
tp420
I90261
s(I9
I5
I1
I78
I20161022
tp421
I90077
s(I9
I5
I1
I24
I20161022
tp422
I90023
s(I9
I7
I5
I92
I20161130
tp423
I90258
s(I9
I7
I1
I98
I20161130
tp424
I90446
s(I9
I7
I6
I10
I20161130
tp425
I90276
s(I9
I5
I1
I77
I20161022
tp426
I90076
s(I9
I7
I1
I49
I20161130
tp427
I90397
s(I9
I7
I5
I63
I20161130
tp428
I90229
s(I9
I5
I1
I31
I20161022
tp429
I90030
s(I9
I7
I1
I76
I20161130
tp430
I90424
s(I9
I7
I5
I14
I20161130
tp431
I90180
s(I9
I5
I1
I86
I20161022
tp432
I90085
s(I9
I7
I6
I6
I20161130
tp433
I90272
s(I9
I7
I5
I79
I20161130
tp434
I90245
s(I9
I7
I5
I60
I20161130
tp435
I90226
s(I9
I5
I1
I32
I20161022
tp436
I90031
s(I9
I7
I1
I3
I20161130
tp437
I90351
s(I9
I7
I1
I82
I20161130
tp438
I90430
s(I9
I7
I5
I40
I20161130
tp439
I90206
s(I9
I7
I1
I43
I20161130
tp440
I90391
s(I9
I7
I5
I81
I20161130
tp441
I90247
s(I9
I7
I1
I70
I20161130
tp442
I90418
s(I9
I6
I2
I18
I20161023
tp443
I90151
s(I9
I7
I1
I50
I20161130
tp444
I90398
s(I9
I7
I5
I49
I20161130
tp445
I90215
s(I9
I7
I6
I5
I20161130
tp446
I90271
s(I9
I7
I5
I24
I20161130
tp447
I90190
s(I9
I7
I1
I38
I20161130
tp448
I90386
s(I9
I7
I6
I68
I20161130
tp449
I90334
s(I9
I6
I2
I10
I20161023
tp450
I90143
s(I9
I7
I1
I79
I20161130
tp451
I90427
s.