(dp0
(I1
I6
I1
I20
I20161024
tp1
I10019
s(I1
I6
I1
I109
I20161024
tp2
I10108
s(I1
I6
I1
I66
I20161024
tp3
I10065
s(I1
I6
I1
I91
I20161024
tp4
I10090
s(I1
I6
I1
I137
I20161024
tp5
I10136
s(I1
I6
I1
I51
I20161024
tp6
I10050
s(I1
I6
I1
I8
I20161024
tp7
I10007
s(I1
I6
I1
I97
I20161024
tp8
I10096
s(I1
I6
I1
I70
I20161024
tp9
I10069
s(I1
I6
I1
I95
I20161024
tp10
I10094
s(I1
I6
I1
I141
I20161024
tp11
I10140
s(I1
I6
I1
I55
I20161024
tp12
I10054
s(I1
I6
I1
I12
I20161024
tp13
I10011
s(I1
I6
I1
I101
I20161024
tp14
I10100
s(I1
I6
I1
I122
I20161024
tp15
I10121
s(I1
I6
I1
I83
I20161024
tp16
I10082
s(I1
I6
I1
I129
I20161024
tp17
I10128
s(I1
I6
I1
I43
I20161024
tp18
I10042
s(I1
I6
I1
I25
I20161024
tp19
I10024
s(I1
I6
I1
I126
I20161024
tp20
I10125
s(I1
I6
I1
I87
I20161024
tp21
I10086
s(I1
I6
I1
I133
I20161024
tp22
I10132
s(I1
I6
I1
I47
I20161024
tp23
I10046
s(I1
I6
I1
I4
I20161024
tp24
I10003
s(I1
I6
I1
I29
I20161024
tp25
I10028
s(I1
I6
I1
I114
I20161024
tp26
I10113
s(I1
I6
I1
I75
I20161024
tp27
I10074
s(I1
I6
I1
I35
I20161024
tp28
I10034
s(I1
I6
I1
I56
I20161024
tp29
I10055
s(I1
I6
I1
I17
I20161024
tp30
I10016
s(I1
I6
I1
I118
I20161024
tp31
I10117
s(I1
I6
I1
I79
I20161024
tp32
I10078
s(I1
I6
I1
I39
I20161024
tp33
I10038
s(I1
I6
I1
I60
I20161024
tp34
I10059
s(I1
I6
I1
I21
I20161024
tp35
I10020
s(I1
I6
I1
I106
I20161024
tp36
I10105
s(I1
I6
I1
I67
I20161024
tp37
I10066
s(I1
I6
I1
I88
I20161024
tp38
I10087
s(I1
I6
I1
I48
I20161024
tp39
I10047
s(I1
I6
I1
I9
I20161024
tp40
I10008
s(I1
I6
I1
I110
I20161024
tp41
I10109
s(I1
I6
I1
I71
I20161024
tp42
I10070
s(I1
I6
I1
I92
I20161024
tp43
I10091
s(I1
I6
I1
I138
I20161024
tp44
I10137
s(I1
I6
I1
I52
I20161024
tp45
I10051
s(I1
I6
I1
I13
I20161024
tp46
I10012
s(I1
I6
I1
I98
I20161024
tp47
I10097
s(I1
I6
I1
I123
I20161024
tp48
I10122
s(I1
I6
I1
I80
I20161024
tp49
I10079
s(I1
I6
I1
I142
I20161024
tp50
I10141
s(I1
I6
I1
I40
I20161024
tp51
I10039
s(I1
I6
I1
I1
I20161024
tp52
I10000
s(I1
I6
I1
I102
I20161024
tp53
I10101
s(I1
I6
I1
I127
I20161024
tp54
I10126
s(I1
I6
I1
I84
I20161024
tp55
I10083
s(I1
I6
I1
I130
I20161024
tp56
I10129
s(I1
I6
I1
I44
I20161024
tp57
I10043
s(I1
I6
I1
I5
I20161024
tp58
I10004
s(I1
I6
I1
I26
I20161024
tp59
I10025
s(I1
I6
I1
I115
I20161024
tp60
I10114
s(I1
I6
I1
I72
I20161024
tp61
I10071
s(I1
I6
I1
I134
I20161024
tp62
I10133
s(I1
I6
I1
I32
I20161024
tp63
I10031
s(I1
I6
I1
I57
I20161024
tp64
I10056
s(I1
I6
I1
I30
I20161024
tp65
I10029
s(I1
I6
I1
I119
I20161024
tp66
I10118
s(I1
I6
I1
I76
I20161024
tp67
I10075
s(I1
I6
I1
I36
I20161024
tp68
I10035
s(I1
I6
I1
I61
I20161024
tp69
I10060
s(I1
I6
I1
I18
I20161024
tp70
I10017
s(I1
I6
I1
I107
I20161024
tp71
I10106
s(I1
I6
I1
I64
I20161024
tp72
I10063
s(I1
I6
I1
I89
I20161024
tp73
I10088
s(I1
I6
I1
I49
I20161024
tp74
I10048
s(I1
I6
I1
I22
I20161024
tp75
I10021
s(I1
I6
I1
I111
I20161024
tp76
I10110
s(I1
I6
I1
I68
I20161024
tp77
I10067
s(I1
I6
I1
I93
I20161024
tp78
I10092
s(I1
I6
I1
I139
I20161024
tp79
I10138
s(I1
I6
I1
I53
I20161024
tp80
I10052
s(I1
I6
I1
I10
I20161024
tp81
I10009
s(I1
I6
I1
I99
I20161024
tp82
I10098
s(I1
I6
I1
I120
I20161024
tp83
I10119
s(I1
I6
I1
I81
I20161024
tp84
I10080
s(I1
I6
I1
I41
I20161024
tp85
I10040
s(I1
I6
I1
I14
I20161024
tp86
I10013
s(I1
I6
I1
I103
I20161024
tp87
I10102
s(I1
I6
I1
I124
I20161024
tp88
I10123
s(I1
I6
I1
I85
I20161024
tp89
I10084
s(I1
I6
I1
I131
I20161024
tp90
I10130
s(I1
I6
I1
I45
I20161024
tp91
I10044
s(I1
I6
I1
I2
I20161024
tp92
I10001
s(I1
I6
I1
I27
I20161024
tp93
I10026
s(I1
I6
I1
I112
I20161024
tp94
I10111
s(I1
I6
I1
I73
I20161024
tp95
I10072
s(I1
I6
I1
I135
I20161024
tp96
I10134
s(I1
I6
I1
I33
I20161024
tp97
I10032
s(I1
I6
I1
I6
I20161024
tp98
I10005
s(I1
I6
I1
I31
I20161024
tp99
I10030
s(I1
I6
I1
I116
I20161024
tp100
I10115
s(I1
I6
I1
I77
I20161024
tp101
I10076
s(I1
I6
I1
I37
I20161024
tp102
I10036
s(I1
I6
I1
I58
I20161024
tp103
I10057
s(I1
I6
I1
I19
I20161024
tp104
I10018
s(I1
I6
I1
I104
I20161024
tp105
I10103
s(I1
I6
I1
I65
I20161024
tp106
I10064
s(I1
I6
I1
I62
I20161024
tp107
I10061
s(I1
I6
I1
I23
I20161024
tp108
I10022
s(I1
I6
I1
I108
I20161024
tp109
I10107
s(I1
I6
I1
I69
I20161024
tp110
I10068
s(I1
I6
I1
I90
I20161024
tp111
I10089
s(I1
I6
I1
I136
I20161024
tp112
I10135
s(I1
I6
I1
I50
I20161024
tp113
I10049
s(I1
I6
I1
I11
I20161024
tp114
I10010
s(I1
I6
I1
I96
I20161024
tp115
I10095
s(I1
I6
I1
I121
I20161024
tp116
I10120
s(I1
I6
I1
I94
I20161024
tp117
I10093
s(I1
I6
I1
I140
I20161024
tp118
I10139
s(I1
I6
I1
I54
I20161024
tp119
I10053
s(I1
I6
I1
I15
I20161024
tp120
I10014
s(I1
I6
I1
I100
I20161024
tp121
I10099
s(I1
I6
I1
I125
I20161024
tp122
I10124
s(I1
I6
I1
I82
I20161024
tp123
I10081
s(I1
I6
I1
I128
I20161024
tp124
I10127
s(I1
I6
I1
I42
I20161024
tp125
I10041
s(I1
I6
I1
I3
I20161024
tp126
I10002
s(I1
I6
I1
I24
I20161024
tp127
I10023
s(I1
I6
I1
I113
I20161024
tp128
I10112
s(I1
I6
I1
I86
I20161024
tp129
I10085
s(I1
I6
I1
I132
I20161024
tp130
I10131
s(I1
I6
I1
I46
I20161024
tp131
I10045
s(I1
I6
I1
I7
I20161024
tp132
I10006
s(I1
I6
I1
I28
I20161024
tp133
I10027
s(I1
I6
I1
I117
I20161024
tp134
I10116
s(I1
I6
I1
I74
I20161024
tp135
I10073
s(I1
I6
I1
I34
I20161024
tp136
I10033
s(I1
I6
I1
I59
I20161024
tp137
I10058
s(I1
I6
I1
I16
I20161024
tp138
I10015
s(I1
I6
I1
I105
I20161024
tp139
I10104
s(I1
I6
I1
I78
I20161024
tp140
I10077
s(I1
I6
I1
I38
I20161024
tp141
I10037
s(I1
I6
I1
I63
I20161024
tp142
I10062
s.