(dp0
(I7
I5
I7
I44
I20161103
I0
tp1
I71920
s(I7
I5
I7
I50
I20161103
I0
tp2
I71926
s(I7
I6
I3
I60
I20161107
I0
tp3
I70256
s(I7
I6
I2
I88
I20161107
I0
tp4
I70185
s(I7
I5
I7
I3
I20161103
I0
tp5
I71879
s(I7
I7
I6
I6
I20161114
I0
tp6
I71681
s(I7
I7
I7
I36
I20161114
I0
tp7
I71812
s(I7
I7
I1
I76
I20161114
I0
tp8
I72072
s(I7
I5
I5
I70
I20161103
I0
tp9
I71368
s(I7
I6
I1
I47
I20161107
I0
tp10
I70046
s(I7
I7
I2
I84
I20161114
I0
tp11
I72178
s(I7
I5
I5
I87
I20161103
I0
tp12
I71385
s(I7
I7
I1
I84
I20161114
I0
tp13
I72080
s(I7
I6
I6
I30
I20161107
I0
tp14
I70526
s(I7
I7
I2
I14
I20161114
I0
tp15
I72108
s(I7
I6
I4
I51
I20161107
I0
tp16
I70348
s(I7
I6
I7
I2
I20161107
I0
tp17
I70596
s(I7
I7
I4
I45
I20161114
I0
tp18
I71517
s(I7
I6
I5
I41
I20161107
I0
tp19
I70438
s(I7
I7
I6
I80
I20161114
I0
tp20
I71755
s(I7
I5
I5
I7
I20161103
I0
tp21
I71305
s(I7
I6
I4
I18
I20161107
I0
tp22
I70315
s(I7
I5
I5
I46
I20161103
I0
tp23
I71344
s(I7
I6
I5
I52
I20161107
I0
tp24
I70449
s(I7
I7
I1
I58
I20161114
I0
tp25
I72054
s(I7
I6
I3
I75
I20161107
I0
tp26
I70271
s(I7
I5
I5
I63
I20161103
I0
tp27
I71361
s(I7
I6
I6
I32
I20161107
I0
tp28
I70528
s(I7
I5
I1
I37
I20161103
I0
tp29
I70730
s(I7
I7
I3
I22
I20161114
I0
tp30
I72215
s(I7
I7
I2
I64
I20161114
I0
tp31
I72158
s(I7
I7
I3
I92
I20161114
I0
tp32
I72285
s(I7
I5
I3
I106
I20161103
I0
tp33
I71098
s(I7
I5
I3
I91
I20161103
I0
tp34
I71083
s(I7
I7
I1
I87
I20161114
I0
tp35
I72083
s(I7
I7
I3
I52
I20161114
I0
tp36
I72245
s(I7
I5
I3
I76
I20161103
I0
tp37
I71068
s(I7
I6
I6
I87
I20161107
I0
tp38
I70583
s(I7
I5
I3
I58
I20161103
I0
tp39
I71050
s(I7
I5
I3
I43
I20161103
I0
tp40
I70978
s(I7
I5
I3
I82
I20161103
I0
tp41
I71074
s(I7
I7
I7
I43
I20161114
I0
tp42
I71819
s(I7
I5
I3
I67
I20161103
I0
tp43
I71059
s(I7
I7
I4
I32
I20161114
I0
tp44
I71504
s(I7
I7
I5
I65
I20161114
I0
tp45
I71638
s(I7
I5
I6
I48
I20161103
I0
tp46
I71465
s(I7
I5
I3
I51
I20161103
I1
tp47
I71043
s(I7
I7
I4
I50
I20161114
I0
tp48
I71522
s(I7
I7
I5
I79
I20161114
I0
tp49
I71652
s(I7
I5
I6
I17
I20161103
I0
tp50
I71434
s(I7
I7
I4
I99
I20161114
I0
tp51
I71571
s(I7
I5
I3
I3
I20161103
I1
tp52
I70995
s(I7
I5
I6
I9
I20161103
I0
tp53
I71426
s(I7
I5
I6
I24
I20161103
I0
tp54
I71441
s(I7
I6
I5
I15
I20161107
I0
tp55
I70412
s(I7
I7
I1
I47
I20161114
I0
tp56
I72043
s(I7
I6
I2
I77
I20161107
I0
tp57
I70174
s(I7
I6
I2
I3
I20161107
I0
tp58
I70100
s(I7
I6
I1
I55
I20161107
I0
tp59
I70054
s(I7
I5
I4
I48
I20161103
I0
tp60
I71160
s(I7
I6
I3
I31
I20161107
I0
tp61
I70227
s(I7
I7
I2
I2
I20161114
I0
tp62
I72096
s(I7
I6
I1
I50
I20161107
I0
tp63
I70049
s(I7
I5
I4
I17
I20161103
I0
tp64
I71129
s(I7
I5
I4
I57
I20161103
I0
tp65
I71169
s(I7
I5
I4
I45
I20161103
I0
tp66
I71157
s(I7
I5
I7
I81
I20161103
I0
tp67
I71957
s(I7
I6
I3
I93
I20161107
I0
tp68
I70289
s(I7
I5
I7
I34
I20161103
I0
tp69
I71910
s(I7
I7
I4
I57
I20161114
I0
tp70
I71529
s(I7
I6
I5
I74
I20161107
I0
tp71
I70471
s(I7
I7
I3
I17
I20161114
I0
tp72
I72210
s(I7
I6
I3
I28
I20161107
I0
tp73
I70224
s(I7
I6
I2
I66
I20161107
I0
tp74
I70163
s(I7
I6
I5
I43
I20161107
I0
tp75
I70440
s(I7
I6
I3
I86
I20161107
I0
tp76
I70282
s(I7
I7
I5
I16
I20161114
I0
tp77
I71589
s(I7
I7
I4
I62
I20161114
I0
tp78
I71534
s(I7
I5
I2
I49
I20161103
I0
tp79
I70863
s(I7
I5
I4
I6
I20161103
I1
tp80
I71184
s(I7
I5
I2
I32
I20161103
I0
tp81
I70846
s(I7
I5
I2
I74
I20161103
I0
tp82
I70888
s(I7
I6
I7
I96
I20161107
I0
tp83
I70690
s(I7
I5
I2
I53
I20161103
I0
tp84
I70867
s(I7
I5
I5
I94
I20161103
I0
tp85
I71392
s(I7
I6
I7
I28
I20161107
I0
tp86
I70622
s(I7
I7
I7
I79
I20161114
I0
tp87
I71855
s(I7
I5
I5
I79
I20161103
I0
tp88
I71377
s(I7
I7
I6
I12
I20161114
I0
tp89
I71687
s(I7
I6
I5
I20
I20161107
I0
tp90
I70417
s(I7
I6
I6
I58
I20161107
I0
tp91
I70554
s(I7
I7
I5
I19
I20161114
I0
tp92
I71592
s(I7
I7
I6
I34
I20161114
I0
tp93
I71709
s(I7
I5
I5
I3
I20161103
I0
tp94
I71301
s(I7
I5
I5
I16
I20161103
I0
tp95
I71314
s(I7
I7
I3
I54
I20161114
I0
tp96
I72247
s(I7
I7
I2
I96
I20161114
I0
tp97
I72190
s(I7
I5
I3
I98
I20161103
I0
tp98
I71090
s(I7
I7
I2
I53
I20161114
I0
tp99
I72147
s(I7
I7
I7
I58
I20161114
I0
tp100
I71834
s(I7
I7
I7
I68
I20161114
I0
tp101
I71844
s(I7
I7
I7
I88
I20161114
I0
tp102
I71864
s(I7
I6
I4
I14
I20161107
I0
tp103
I70311
s(I7
I6
I2
I59
I20161107
I0
tp104
I70156
s(I7
I6
I3
I87
I20161107
I0
tp105
I70283
s(I7
I7
I3
I53
I20161114
I0
tp106
I72246
s(I7
I6
I2
I46
I20161107
I0
tp107
I70143
s(I7
I5
I3
I47
I20161103
I0
tp108
I70982
s(I7
I7
I5
I95
I20161114
I0
tp109
I71668
s(I7
I5
I3
I16
I20161103
I0
tp110
I70951
s(I7
I5
I4
I105
I20161103
I0
tp111
I71283
s(I7
I5
I3
I1
I20161103
I0
tp112
I70936
s(I7
I7
I3
I13
I20161114
I0
tp113
I72206
s(I7
I7
I6
I51
I20161114
I0
tp114
I71726
s(I7
I7
I1
I54
I20161114
I0
tp115
I72050
s(I7
I7
I7
I44
I20161114
I0
tp116
I71820
s(I7
I7
I2
I10
I20161114
I0
tp117
I72104
s(I7
I5
I5
I109
I20161103
I0
tp118
I71407
s(I7
I7
I4
I15
I20161114
I0
tp119
I71487
s(I7
I5
I4
I49
I20161103
I1
tp120
I71227
s(I7
I6
I5
I21
I20161107
I0
tp121
I70418
s(I7
I6
I4
I28
I20161107
I0
tp122
I70325
s(I7
I6
I2
I45
I20161107
I0
tp123
I70142
s(I7
I6
I4
I66
I20161107
I0
tp124
I70363
s(I7
I7
I3
I80
I20161114
I0
tp125
I72273
s(I7
I5
I1
I17
I20161103
I0
tp126
I70710
s(I7
I5
I4
I25
I20161103
I0
tp127
I71137
s(I7
I6
I6
I44
I20161107
I0
tp128
I70540
s(I7
I6
I1
I9
I20161107
I0
tp129
I70008
s(I7
I6
I4
I69
I20161107
I0
tp130
I70366
s(I7
I7
I2
I41
I20161114
I0
tp131
I72135
s(I7
I6
I5
I49
I20161107
I0
tp132
I70446
s(I7
I6
I3
I72
I20161107
I0
tp133
I70268
s(I7
I7
I3
I63
I20161114
I0
tp134
I72256
s(I7
I5
I7
I30
I20161103
I0
tp135
I71906
s(I7
I7
I4
I17
I20161114
I0
tp136
I71489
s(I7
I6
I1
I10
I20161107
I0
tp137
I70009
s(I7
I7
I4
I51
I20161114
I0
tp138
I71523
s(I7
I6
I3
I57
I20161107
I0
tp139
I70253
s(I7
I6
I1
I80
I20161107
I0
tp140
I70079
s(I7
I7
I3
I37
I20161114
I0
tp141
I72230
s(I7
I7
I5
I24
I20161114
I0
tp142
I71597
s(I7
I7
I6
I44
I20161114
I0
tp143
I71719
s(I7
I6
I7
I81
I20161107
I0
tp144
I70675
s(I7
I7
I6
I4
I20161114
I0
tp145
I71679
s(I7
I7
I6
I41
I20161114
I0
tp146
I71716
s(I7
I5
I5
I27
I20161103
I0
tp147
I71325
s(I7
I6
I5
I3
I20161107
I0
tp148
I70400
s(I7
I6
I3
I62
I20161107
I0
tp149
I70258
s(I7
I5
I3
I48
I20161103
I1
tp150
I71040
s(I7
I5
I3
I46
I20161103
I1
tp151
I71038
s(I7
I5
I7
I76
I20161103
I0
tp152
I71952
s(I7
I5
I7
I93
I20161103
I0
tp153
I71969
s(I7
I7
I7
I66
I20161114
I0
tp154
I71842
s(I7
I6
I4
I20
I20161107
I0
tp155
I70317
s(I7
I6
I2
I37
I20161107
I0
tp156
I70134
s(I7
I6
I5
I8
I20161107
I0
tp157
I70405
s(I7
I6
I3
I55
I20161107
I0
tp158
I70251
s(I7
I5
I3
I30
I20161103
I0
tp159
I70965
s(I7
I7
I4
I92
I20161114
I0
tp160
I71564
s(I7
I5
I3
I15
I20161103
I0
tp161
I70950
s(I7
I5
I4
I58
I20161103
I1
tp162
I71236
s(I7
I5
I7
I104
I20161103
I0
tp163
I71980
s(I7
I7
I2
I65
I20161114
I0
tp164
I72159
s(I7
I5
I4
I10
I20161103
I1
tp165
I71188
s(I7
I6
I7
I34
I20161107
I0
tp166
I70628
s(I7
I7
I1
I28
I20161114
I0
tp167
I72024
s(I7
I7
I5
I40
I20161114
I0
tp168
I71613
s(I7
I7
I1
I86
I20161114
I0
tp169
I72082
s(I7
I6
I6
I97
I20161107
I0
tp170
I70593
s(I7
I7
I2
I42
I20161114
I0
tp171
I72136
s(I7
I5
I5
I77
I20161103
I0
tp172
I71375
s(I7
I7
I7
I65
I20161114
I0
tp173
I71841
s(I7
I7
I1
I62
I20161114
I0
tp174
I72058
s(I7
I6
I6
I52
I20161107
I0
tp175
I70548
s(I7
I5
I5
I90
I20161103
I0
tp176
I71388
s(I7
I6
I4
I93
I20161107
I0
tp177
I70390
s(I7
I6
I3
I82
I20161107
I0
tp178
I70278
s(I7
I7
I5
I67
I20161114
I0
tp179
I71640
s(I7
I7
I2
I23
I20161114
I0
tp180
I72117
s(I7
I5
I1
I2
I20161103
I0
tp181
I70695
s(I7
I7
I3
I20
I20161114
I0
tp182
I72213
s(I7
I5
I1
I19
I20161103
I0
tp183
I70712
s(I7
I5
I4
I5
I20161103
I1
tp184
I71183
s(I7
I7
I2
I86
I20161114
I0
tp185
I72180
s(I7
I7
I4
I101
I20161114
I0
tp186
I71573
s(I7
I5
I3
I117
I20161103
I0
tp187
I71109
s(I7
I7
I1
I33
I20161114
I0
tp188
I72029
s(I7
I5
I1
I45
I20161103
I0
tp189
I70738
s(I7
I6
I2
I1
I20161107
I0
tp190
I70098
s(I7
I7
I1
I8
I20161114
I0
tp191
I72004
s(I7
I7
I5
I18
I20161114
I0
tp192
I71591
s(I7
I5
I1
I93
I20161103
I0
tp193
I70786
s(I7
I7
I3
I100
I20161114
I0
tp194
I72293
s(I7
I7
I4
I98
I20161114
I0
tp195
I71570
s(I7
I7
I3
I79
I20161114
I0
tp196
I72272
s(I7
I5
I6
I42
I20161103
I0
tp197
I71459
s(I7
I7
I4
I9
I20161114
I0
tp198
I71481
s(I7
I7
I4
I49
I20161114
I0
tp199
I71521
s(I7
I6
I2
I63
I20161107
I0
tp200
I70160
s(I7
I7
I4
I25
I20161114
I0
tp201
I71497
s(I7
I6
I3
I83
I20161107
I0
tp202
I70279
s(I7
I6
I3
I25
I20161107
I0
tp203
I70221
s(I7
I6
I4
I33
I20161107
I0
tp204
I70330
s(I7
I6
I2
I86
I20161107
I0
tp205
I70183
s(I7
I5
I6
I55
I20161103
I0
tp206
I71472
s(I7
I6
I1
I87
I20161107
I0
tp207
I70086
s(I7
I6
I3
I84
I20161107
I0
tp208
I70280
s(I7
I7
I3
I40
I20161114
I0
tp209
I72233
s(I7
I6
I6
I75
I20161107
I0
tp210
I70571
s(I7
I5
I4
I116
I20161103
I0
tp211
I71294
s(I7
I7
I1
I35
I20161114
I0
tp212
I72031
s(I7
I7
I6
I17
I20161114
I0
tp213
I71692
s(I7
I5
I4
I107
I20161103
I0
tp214
I71285
s(I7
I7
I4
I26
I20161114
I0
tp215
I71498
s(I7
I6
I6
I15
I20161107
I0
tp216
I70511
s(I7
I6
I5
I87
I20161107
I0
tp217
I70484
s(I7
I5
I7
I100
I20161103
I0
tp218
I71976
s(I7
I5
I4
I68
I20161103
I0
tp219
I71246
s(I7
I5
I4
I59
I20161103
I0
tp220
I71171
s(I7
I5
I7
I84
I20161103
I0
tp221
I71960
s(I7
I6
I5
I22
I20161107
I0
tp222
I70419
s(I7
I5
I4
I52
I20161103
I1
tp223
I71230
s(I7
I7
I6
I99
I20161114
I0
tp224
I71774
s(I7
I5
I2
I116
I20161103
I0
tp225
I70930
s(I7
I5
I4
I26
I20161103
I1
tp226
I71204
s(I7
I5
I7
I42
I20161103
I0
tp227
I71918
s(I7
I5
I7
I59
I20161103
I0
tp228
I71935
s(I7
I7
I6
I14
I20161114
I0
tp229
I71689
s(I7
I7
I2
I91
I20161114
I0
tp230
I72185
s(I7
I5
I2
I109
I20161103
I0
tp231
I70923
s(I7
I5
I7
I9
I20161103
I0
tp232
I71885
s(I7
I7
I5
I89
I20161114
I0
tp233
I71662
s(I7
I6
I7
I60
I20161107
I0
tp234
I70654
s(I7
I5
I2
I92
I20161103
I0
tp235
I70906
s(I7
I6
I1
I79
I20161107
I0
tp236
I70078
s(I7
I7
I1
I60
I20161114
I0
tp237
I72056
s(I7
I5
I2
I79
I20161103
I0
tp238
I70893
s(I7
I6
I6
I20
I20161107
I0
tp239
I70516
s(I7
I6
I1
I59
I20161107
I0
tp240
I70058
s(I7
I7
I3
I43
I20161114
I0
tp241
I72236
s(I7
I7
I7
I60
I20161114
I0
tp242
I71836
s(I7
I5
I4
I21
I20161103
I1
tp243
I71199
s(I7
I5
I5
I86
I20161103
I0
tp244
I71384
s(I7
I5
I5
I113
I20161103
I0
tp245
I71411
s(I7
I5
I5
I57
I20161103
I0
tp246
I71355
s(I7
I5
I5
I6
I20161103
I0
tp247
I71304
s(I7
I7
I3
I12
I20161114
I0
tp248
I72205
s(I7
I5
I5
I23
I20161103
I0
tp249
I71321
s(I7
I7
I1
I7
I20161114
I0
tp250
I72003
s(I7
I5
I1
I60
I20161103
I0
tp251
I70753
s(I7
I5
I1
I23
I20161103
I0
tp252
I70716
s(I7
I5
I1
I77
I20161103
I0
tp253
I70770
s(I7
I5
I1
I36
I20161103
I0
tp254
I70729
s(I7
I6
I1
I85
I20161107
I0
tp255
I70084
s(I7
I5
I1
I53
I20161103
I0
tp256
I70746
s(I7
I6
I2
I10
I20161107
I0
tp257
I70107
s(I7
I5
I1
I71
I20161103
I0
tp258
I70764
s(I7
I5
I3
I33
I20161103
I0
tp259
I70968
s(I7
I6
I2
I84
I20161107
I0
tp260
I70181
s(I7
I5
I1
I101
I20161103
I0
tp261
I70794
s(I7
I5
I3
I57
I20161103
I0
tp262
I70992
s(I7
I7
I6
I71
I20161114
I0
tp263
I71746
s(I7
I6
I7
I3
I20161107
I0
tp264
I70597
s(I7
I5
I3
I42
I20161103
I0
tp265
I70977
s(I7
I6
I7
I24
I20161107
I0
tp266
I70618
s(I7
I6
I5
I12
I20161107
I0
tp267
I70409
s(I7
I7
I2
I30
I20161114
I0
tp268
I72124
s(I7
I6
I3
I51
I20161107
I0
tp269
I70247
s(I7
I6
I4
I71
I20161107
I0
tp270
I70368
s(I7
I6
I4
I38
I20161107
I0
tp271
I70335
s(I7
I7
I4
I75
I20161114
I0
tp272
I71547
s(I7
I6
I2
I83
I20161107
I0
tp273
I70180
s(I7
I7
I3
I45
I20161114
I0
tp274
I72238
s(I7
I7
I5
I1
I20161114
I0
tp275
I71574
s(I7
I5
I3
I5
I20161103
I1
tp276
I70997
s(I7
I7
I3
I2
I20161114
I0
tp277
I72195
s(I7
I5
I4
I101
I20161103
I0
tp278
I71279
s(I7
I5
I4
I84
I20161103
I0
tp279
I71262
s(I7
I6
I7
I79
I20161107
I0
tp280
I70673
s(I7
I7
I1
I43
I20161114
I0
tp281
I72039
s(I7
I6
I5
I55
I20161107
I0
tp282
I70452
s(I7
I7
I6
I70
I20161114
I0
tp283
I71745
s(I7
I6
I1
I51
I20161107
I0
tp284
I70050
s(I7
I5
I3
I2
I20161103
I1
tp285
I70994
s(I7
I5
I7
I40
I20161103
I0
tp286
I71916
s(I7
I7
I6
I31
I20161114
I0
tp287
I71706
s(I7
I5
I7
I57
I20161103
I0
tp288
I71933
s(I7
I7
I1
I45
I20161114
I0
tp289
I72041
s(I7
I7
I3
I25
I20161114
I0
tp290
I72218
s(I7
I5
I2
I108
I20161103
I0
tp291
I70922
s(I7
I5
I7
I10
I20161103
I0
tp292
I71886
s(I7
I5
I7
I33
I20161103
I0
tp293
I71909
s(I7
I5
I7
I27
I20161103
I0
tp294
I71903
s(I7
I6
I2
I30
I20161107
I0
tp295
I70127
s(I7
I7
I2
I16
I20161114
I0
tp296
I72110
s(I7
I5
I2
I77
I20161103
I0
tp297
I70891
s(I7
I5
I7
I17
I20161103
I0
tp298
I71893
s(I7
I6
I3
I29
I20161107
I0
tp299
I70225
s(I7
I6
I1
I52
I20161107
I0
tp300
I70051
s(I7
I6
I1
I33
I20161107
I0
tp301
I70032
s(I7
I5
I2
I51
I20161103
I0
tp302
I70865
s(I7
I5
I2
I34
I20161103
I0
tp303
I70848
s(I7
I5
I5
I88
I20161103
I0
tp304
I71386
s(I7
I5
I5
I41
I20161103
I0
tp305
I71339
s(I7
I6
I6
I42
I20161107
I0
tp306
I70538
s(I7
I5
I5
I54
I20161103
I0
tp307
I71352
s(I7
I5
I5
I8
I20161103
I0
tp308
I71306
s(I7
I5
I5
I25
I20161103
I0
tp309
I71323
s(I7
I6
I7
I32
I20161107
I0
tp310
I70626
s(I7
I7
I2
I80
I20161114
I0
tp311
I72174
s(I7
I7
I5
I13
I20161114
I0
tp312
I71586
s(I7
I7
I2
I37
I20161114
I0
tp313
I72131
s(I7
I6
I3
I65
I20161107
I0
tp314
I70261
s(I7
I5
I1
I55
I20161103
I0
tp315
I70748
s(I7
I7
I2
I61
I20161114
I0
tp316
I72155
s(I7
I5
I1
I68
I20161103
I0
tp317
I70761
s(I7
I5
I3
I88
I20161103
I0
tp318
I71080
s(I7
I5
I3
I73
I20161103
I0
tp319
I71065
s(I7
I7
I5
I96
I20161114
I0
tp320
I71669
s(I7
I5
I1
I103
I20161103
I0
tp321
I70796
s(I7
I7
I5
I78
I20161114
I0
tp322
I71651
s(I7
I5
I3
I40
I20161103
I0
tp323
I70975
s(I7
I5
I3
I25
I20161103
I0
tp324
I70960
s(I7
I5
I4
I64
I20161103
I1
tp325
I71242
s(I7
I5
I3
I10
I20161103
I0
tp326
I70945
s(I7
I6
I7
I87
I20161107
I0
tp327
I70681
s(I7
I7
I7
I19
I20161114
I0
tp328
I71795
s(I7
I6
I6
I78
I20161107
I0
tp329
I70574
s(I7
I6
I7
I42
I20161107
I0
tp330
I70636
s(I7
I7
I6
I24
I20161114
I0
tp331
I71699
s(I7
I7
I5
I99
I20161114
I0
tp332
I71672
s(I7
I7
I5
I7
I20161114
I0
tp333
I71580
s(I7
I7
I5
I31
I20161114
I0
tp334
I71604
s(I7
I5
I4
I55
I20161103
I1
tp335
I71233
s(I7
I5
I7
I115
I20161103
I0
tp336
I71991
s(I7
I6
I2
I44
I20161107
I0
tp337
I70141
s(I7
I7
I1
I24
I20161114
I0
tp338
I72020
s(I7
I6
I1
I89
I20161107
I0
tp339
I70088
s(I7
I5
I1
I27
I20161103
I0
tp340
I70720
s(I7
I6
I1
I19
I20161107
I0
tp341
I70018
s(I7
I6
I2
I55
I20161107
I0
tp342
I70152
s(I7
I5
I4
I40
I20161103
I0
tp343
I71152
s(I7
I5
I4
I31
I20161103
I0
tp344
I71143
s(I7
I7
I2
I40
I20161114
I0
tp345
I72134
s(I7
I7
I6
I63
I20161114
I0
tp346
I71738
s(I7
I6
I5
I33
I20161107
I0
tp347
I70430
s(I7
I5
I4
I14
I20161103
I0
tp348
I71126
s(I7
I6
I6
I73
I20161107
I0
tp349
I70569
s(I7
I7
I3
I57
I20161114
I0
tp350
I72250
s(I7
I7
I6
I23
I20161114
I0
tp351
I71698
s(I7
I5
I7
I1
I20161103
I0
tp352
I71877
s(I7
I7
I1
I34
I20161114
I0
tp353
I72030
s(I7
I6
I6
I40
I20161107
I0
tp354
I70536
s(I7
I6
I4
I65
I20161107
I0
tp355
I70362
s(I7
I7
I3
I31
I20161114
I0
tp356
I72224
s(I7
I7
I7
I53
I20161114
I0
tp357
I71829
s(I7
I7
I4
I27
I20161114
I0
tp358
I71499
s(I7
I5
I7
I112
I20161103
I0
tp359
I71988
s(I7
I6
I4
I5
I20161107
I0
tp360
I70302
s(I7
I6
I3
I73
I20161107
I0
tp361
I70269
s(I7
I6
I1
I96
I20161107
I0
tp362
I70095
s(I7
I6
I2
I72
I20161107
I0
tp363
I70169
s(I7
I5
I2
I19
I20161103
I0
tp364
I70833
s(I7
I5
I2
I56
I20161103
I0
tp365
I70870
s(I7
I5
I2
I2
I20161103
I0
tp366
I70816
s(I7
I6
I7
I7
I20161107
I0
tp367
I70601
s(I7
I5
I2
I43
I20161103
I0
tp368
I70857
s(I7
I6
I7
I65
I20161107
I0
tp369
I70659
s(I7
I5
I2
I26
I20161103
I0
tp370
I70840
s(I7
I7
I6
I20
I20161114
I0
tp371
I71695
s(I7
I5
I2
I8
I20161103
I0
tp372
I70822
s(I7
I7
I1
I89
I20161114
I0
tp373
I72085
s(I7
I6
I6
I47
I20161107
I0
tp374
I70543
s(I7
I7
I1
I13
I20161114
I0
tp375
I72009
s(I7
I5
I4
I113
I20161103
I0
tp376
I71291
s(I7
I7
I4
I4
I20161114
I0
tp377
I71476
s(I7
I5
I1
I85
I20161103
I0
tp378
I70778
s(I7
I7
I2
I63
I20161114
I0
tp379
I72157
s(I7
I7
I5
I5
I20161114
I0
tp380
I71578
s(I7
I7
I2
I93
I20161114
I0
tp381
I72187
s(I7
I5
I3
I54
I20161103
I1
tp382
I71046
s(I7
I5
I4
I66
I20161103
I1
tp383
I71244
s(I7
I7
I6
I89
I20161114
I0
tp384
I71764
s(I7
I5
I3
I6
I20161103
I1
tp385
I70998
s(I7
I5
I2
I121
I20161103
I0
tp386
I70935
s(I7
I5
I4
I32
I20161103
I1
tp387
I71210
s(I7
I5
I7
I92
I20161103
I0
tp388
I71968
s(I7
I7
I7
I51
I20161114
I0
tp389
I71827
s(I7
I5
I1
I120
I20161103
I0
tp390
I70813
s(I7
I6
I1
I15
I20161107
I0
tp391
I70014
s(I7
I6
I1
I68
I20161107
I0
tp392
I70067
s(I7
I5
I3
I14
I20161103
I0
tp393
I70949
s(I7
I7
I1
I46
I20161114
I0
tp394
I72042
s(I7
I5
I1
I116
I20161103
I0
tp395
I70809
s(I7
I5
I5
I81
I20161103
I0
tp396
I71379
s(I7
I7
I5
I91
I20161114
I0
tp397
I71664
s(I7
I5
I4
I35
I20161103
I1
tp398
I71213
s(I7
I6
I5
I83
I20161107
I0
tp399
I70480
s(I7
I6
I2
I12
I20161107
I0
tp400
I70109
s(I7
I5
I1
I11
I20161103
I0
tp401
I70704
s(I7
I6
I5
I18
I20161107
I0
tp402
I70415
s(I7
I6
I4
I100
I20161107
I0
tp403
I70397
s(I7
I5
I1
I21
I20161103
I0
tp404
I70714
s(I7
I5
I1
I42
I20161103
I0
tp405
I70735
s(I7
I6
I3
I18
I20161107
I0
tp406
I70214
s(I7
I6
I1
I57
I20161107
I0
tp407
I70056
s(I7
I5
I1
I59
I20161103
I0
tp408
I70752
s(I7
I6
I2
I81
I20161107
I0
tp409
I70178
s(I7
I5
I1
I18
I20161103
I0
tp410
I70711
s(I7
I5
I4
I41
I20161103
I1
tp411
I71219
s(I7
I5
I3
I92
I20161103
I0
tp412
I71084
s(I7
I6
I7
I53
I20161107
I0
tp413
I70647
s(I7
I5
I4
I8
I20161103
I0
tp414
I71120
s(I7
I5
I3
I119
I20161103
I0
tp415
I71111
s(I7
I7
I1
I90
I20161114
I0
tp416
I72086
s(I7
I7
I4
I84
I20161114
I0
tp417
I71556
s(I7
I6
I6
I41
I20161107
I0
tp418
I70537
s(I7
I5
I3
I71
I20161103
I0
tp419
I71063
s(I7
I6
I6
I66
I20161107
I0
tp420
I70562
s(I7
I6
I6
I8
I20161107
I0
tp421
I70504
s(I7
I6
I7
I46
I20161107
I0
tp422
I70640
s(I7
I7
I4
I1
I20161114
I0
tp423
I71473
s(I7
I6
I5
I69
I20161107
I0
tp424
I70466
s(I7
I7
I7
I61
I20161114
I0
tp425
I71837
s(I7
I6
I3
I41
I20161107
I0
tp426
I70237
s(I7
I5
I3
I55
I20161103
I1
tp427
I71047
s(I7
I5
I2
I24
I20161103
I0
tp428
I70838
s(I7
I6
I7
I91
I20161107
I0
tp429
I70685
s(I7
I5
I3
I31
I20161103
I1
tp430
I71023
s(I7
I7
I1
I11
I20161114
I0
tp431
I72007
s(I7
I7
I3
I24
I20161114
I0
tp432
I72217
s(I7
I7
I4
I21
I20161114
I0
tp433
I71493
s(I7
I5
I4
I115
I20161103
I0
tp434
I71293
s(I7
I7
I2
I34
I20161114
I0
tp435
I72128
s(I7
I7
I1
I19
I20161114
I0
tp436
I72015
s(I7
I5
I4
I98
I20161103
I0
tp437
I71276
s(I7
I7
I5
I71
I20161114
I0
tp438
I71644
s(I7
I7
I5
I11
I20161114
I0
tp439
I71584
s(I7
I5
I3
I52
I20161103
I1
tp440
I71044
s(I7
I5
I4
I92
I20161103
I0
tp441
I71270
s(I7
I5
I3
I22
I20161103
I1
tp442
I71014
s(I7
I7
I4
I89
I20161114
I0
tp443
I71561
s(I7
I6
I5
I6
I20161107
I0
tp444
I70403
s(I7
I5
I4
I61
I20161103
I0
tp445
I71173
s(I7
I5
I4
I44
I20161103
I0
tp446
I71156
s(I7
I5
I7
I82
I20161103
I0
tp447
I71958
s(I7
I6
I6
I11
I20161107
I0
tp448
I70507
s(I7
I5
I7
I35
I20161103
I0
tp449
I71911
s(I7
I6
I4
I32
I20161107
I0
tp450
I70329
s(I7
I7
I6
I81
I20161114
I0
tp451
I71756
s(I7
I5
I7
I60
I20161103
I0
tp452
I71936
s(I7
I7
I5
I26
I20161114
I0
tp453
I71599
s(I7
I5
I7
I86
I20161103
I0
tp454
I71962
s(I7
I6
I4
I75
I20161107
I0
tp455
I70372
s(I7
I7
I7
I12
I20161114
I0
tp456
I71788
s(I7
I7
I2
I75
I20161114
I0
tp457
I72169
s(I7
I7
I7
I85
I20161114
I0
tp458
I71861
s(I7
I5
I4
I28
I20161103
I1
tp459
I71206
s(I7
I6
I2
I43
I20161107
I0
tp460
I70140
s(I7
I5
I5
I98
I20161103
I0
tp461
I71396
s(I7
I7
I2
I35
I20161114
I0
tp462
I72129
s(I7
I5
I4
I36
I20161103
I1
tp463
I71214
s(I7
I5
I2
I100
I20161103
I0
tp464
I70914
s(I7
I7
I1
I52
I20161114
I0
tp465
I72048
s(I7
I7
I4
I65
I20161114
I0
tp466
I71537
s(I7
I6
I1
I75
I20161107
I0
tp467
I70074
s(I7
I5
I2
I69
I20161103
I0
tp468
I70883
s(I7
I5
I2
I52
I20161103
I0
tp469
I70866
s(I7
I5
I5
I78
I20161103
I0
tp470
I71376
s(I7
I5
I5
I95
I20161103
I0
tp471
I71393
s(I7
I6
I6
I64
I20161107
I0
tp472
I70560
s(I7
I5
I5
I101
I20161103
I0
tp473
I71399
s(I7
I7
I7
I41
I20161114
I0
tp474
I71817
s(I7
I7
I4
I23
I20161114
I0
tp475
I71495
s(I7
I6
I5
I51
I20161107
I0
tp476
I70448
s(I7
I5
I5
I114
I20161103
I0
tp477
I71412
s(I7
I6
I6
I95
I20161107
I0
tp478
I70591
s(I7
I7
I7
I87
I20161114
I0
tp479
I71863
s(I7
I7
I5
I102
I20161114
I0
tp480
I71675
s(I7
I6
I4
I68
I20161107
I0
tp481
I70365
s(I7
I7
I7
I30
I20161114
I0
tp482
I71806
s(I7
I5
I5
I75
I20161103
I0
tp483
I71373
s(I7
I5
I1
I50
I20161103
I0
tp484
I70743
s(I7
I5
I3
I114
I20161103
I0
tp485
I71106
s(I7
I5
I3
I102
I20161103
I0
tp486
I71094
s(I7
I6
I2
I26
I20161107
I0
tp487
I70123
s(I7
I7
I1
I9
I20161114
I0
tp488
I72005
s(I7
I6
I3
I48
I20161107
I0
tp489
I70244
s(I7
I6
I1
I12
I20161107
I0
tp490
I70011
s(I7
I5
I1
I76
I20161103
I0
tp491
I70769
s(I7
I5
I3
I93
I20161103
I0
tp492
I71085
s(I7
I6
I6
I34
I20161107
I0
tp493
I70530
s(I7
I6
I7
I72
I20161107
I0
tp494
I70666
s(I7
I5
I1
I111
I20161103
I0
tp495
I70804
s(I7
I7
I6
I69
I20161114
I0
tp496
I71744
s(I7
I6
I4
I22
I20161107
I0
tp497
I70319
s(I7
I6
I5
I48
I20161107
I0
tp498
I70445
s(I7
I5
I6
I36
I20161103
I0
tp499
I71453
s(I7
I5
I6
I50
I20161103
I0
tp500
I71467
s(I7
I7
I6
I100
I20161114
I0
tp501
I71775
s(I7
I5
I6
I5
I20161103
I0
tp502
I71422
s(I7
I7
I4
I53
I20161114
I0
tp503
I71525
s(I7
I6
I3
I63
I20161107
I0
tp504
I70259
s(I7
I5
I6
I20
I20161103
I0
tp505
I71437
s(I7
I6
I4
I67
I20161107
I0
tp506
I70364
s(I7
I7
I1
I51
I20161114
I0
tp507
I72047
s(I7
I7
I4
I29
I20161114
I0
tp508
I71501
s(I7
I7
I1
I72
I20161114
I0
tp509
I72068
s(I7
I5
I4
I94
I20161103
I0
tp510
I71272
s(I7
I5
I4
I77
I20161103
I0
tp511
I71255
s(I7
I5
I4
I102
I20161103
I0
tp512
I71280
s(I7
I5
I4
I60
I20161103
I0
tp513
I71172
s(I7
I5
I4
I85
I20161103
I0
tp514
I71263
s(I7
I5
I4
I29
I20161103
I0
tp515
I71141
s(I7
I5
I4
I54
I20161103
I0
tp516
I71166
s(I7
I5
I4
I12
I20161103
I0
tp517
I71124
s(I7
I6
I5
I13
I20161107
I0
tp518
I70410
s(I7
I5
I4
I37
I20161103
I0
tp519
I71149
s(I7
I6
I6
I45
I20161107
I0
tp520
I70541
s(I7
I7
I6
I43
I20161114
I0
tp521
I71718
s(I7
I7
I6
I21
I20161114
I0
tp522
I71696
s(I7
I6
I5
I75
I20161107
I0
tp523
I70472
s(I7
I5
I4
I20
I20161103
I0
tp524
I71132
s(I7
I6
I7
I15
I20161107
I0
tp525
I70609
s(I7
I7
I3
I23
I20161114
I0
tp526
I72216
s(I7
I7
I5
I48
I20161114
I0
tp527
I71621
s(I7
I7
I4
I30
I20161114
I0
tp528
I71502
s(I7
I6
I5
I92
I20161107
I0
tp529
I70489
s(I7
I6
I3
I99
I20161107
I0
tp530
I70295
s(I7
I5
I4
I38
I20161103
I1
tp531
I71216
s(I7
I5
I2
I106
I20161103
I0
tp532
I70920
s(I7
I7
I2
I67
I20161114
I0
tp533
I72161
s(I7
I5
I2
I85
I20161103
I0
tp534
I70899
s(I7
I5
I4
I4
I20161103
I1
tp535
I71182
s(I7
I5
I2
I68
I20161103
I0
tp536
I70882
s(I7
I5
I2
I58
I20161103
I0
tp537
I70872
s(I7
I5
I2
I37
I20161103
I0
tp538
I70851
s(I7
I7
I3
I65
I20161114
I0
tp539
I72258
s(I7
I5
I2
I20
I20161103
I0
tp540
I70834
s(I7
I6
I7
I29
I20161107
I0
tp541
I70623
s(I7
I5
I2
I61
I20161103
I0
tp542
I70875
s(I7
I6
I6
I90
I20161107
I0
tp543
I70586
s(I7
I6
I7
I50
I20161107
I0
tp544
I70644
s(I7
I6
I2
I57
I20161107
I0
tp545
I70154
s(I7
I6
I5
I89
I20161107
I0
tp546
I70486
s(I7
I7
I6
I73
I20161114
I0
tp547
I71748
s(I7
I7
I7
I49
I20161114
I0
tp548
I71825
s(I7
I5
I5
I1
I20161103
I0
tp549
I71299
s(I7
I6
I7
I20
I20161107
I0
tp550
I70614
s(I7
I6
I7
I21
I20161107
I0
tp551
I70615
s(I7
I7
I2
I21
I20161114
I0
tp552
I72115
s(I7
I5
I5
I24
I20161103
I0
tp553
I71322
s(I7
I7
I7
I56
I20161114
I0
tp554
I71832
s(I7
I7
I2
I78
I20161114
I0
tp555
I72172
s(I7
I7
I4
I66
I20161114
I0
tp556
I71538
s(I7
I6
I4
I57
I20161107
I0
tp557
I70354
s(I7
I7
I1
I41
I20161114
I0
tp558
I72037
s(I7
I6
I3
I16
I20161107
I0
tp559
I70212
s(I7
I5
I1
I78
I20161103
I0
tp560
I70771
s(I7
I7
I5
I20
I20161114
I0
tp561
I71593
s(I7
I5
I1
I95
I20161103
I0
tp562
I70788
s(I7
I7
I1
I49
I20161114
I0
tp563
I72045
s(I7
I7
I5
I12
I20161114
I0
tp564
I71585
s(I7
I5
I1
I108
I20161103
I0
tp565
I70801
s(I7
I6
I3
I77
I20161107
I0
tp566
I70273
s(I7
I5
I1
I119
I20161103
I0
tp567
I70812
s(I7
I5
I3
I27
I20161103
I0
tp568
I70962
s(I7
I7
I6
I101
I20161114
I0
tp569
I71776
s(I7
I7
I3
I27
I20161114
I0
tp570
I72220
s(I7
I5
I3
I12
I20161103
I0
tp571
I70947
s(I7
I6
I6
I23
I20161107
I0
tp572
I70519
s(I7
I5
I6
I34
I20161103
I0
tp573
I71451
s(I7
I6
I4
I60
I20161107
I0
tp574
I70357
s(I7
I7
I6
I93
I20161114
I0
tp575
I71768
s(I7
I6
I5
I94
I20161107
I0
tp576
I70491
s(I7
I5
I6
I53
I20161103
I0
tp577
I71470
s(I7
I6
I5
I16
I20161107
I0
tp578
I70413
s(I7
I6
I4
I98
I20161107
I0
tp579
I70395
s(I7
I7
I4
I86
I20161114
I0
tp580
I71558
s(I7
I7
I5
I15
I20161114
I0
tp581
I71588
s(I7
I6
I5
I63
I20161107
I0
tp582
I70460
s(I7
I5
I6
I18
I20161103
I0
tp583
I71435
s(I7
I5
I5
I97
I20161103
I0
tp584
I71395
s(I7
I6
I6
I14
I20161107
I0
tp585
I70510
s(I7
I6
I4
I35
I20161107
I0
tp586
I70332
s(I7
I5
I7
I77
I20161103
I0
tp587
I71953
s(I7
I5
I4
I70
I20161103
I0
tp588
I71248
s(I7
I6
I6
I76
I20161107
I0
tp589
I70572
s(I7
I5
I4
I53
I20161103
I0
tp590
I71165
s(I7
I7
I3
I6
I20161114
I0
tp591
I72199
s(I7
I5
I4
I22
I20161103
I0
tp592
I71134
s(I7
I6
I6
I13
I20161107
I0
tp593
I70509
s(I7
I6
I5
I81
I20161107
I0
tp594
I70478
s(I7
I6
I6
I71
I20161107
I0
tp595
I70567
s(I7
I5
I1
I110
I20161103
I0
tp596
I70803
s(I7
I5
I7
I15
I20161103
I0
tp597
I71891
s(I7
I5
I7
I24
I20161103
I0
tp598
I71900
s(I7
I7
I4
I19
I20161114
I0
tp599
I71491
s(I7
I7
I3
I5
I20161114
I0
tp600
I72198
s(I7
I7
I3
I97
I20161114
I0
tp601
I72290
s(I7
I7
I3
I29
I20161114
I0
tp602
I72222
s(I7
I7
I2
I44
I20161114
I0
tp603
I72138
s(I7
I6
I3
I24
I20161107
I0
tp604
I70220
s(I7
I6
I2
I25
I20161107
I0
tp605
I70122
s(I7
I5
I2
I16
I20161103
I0
tp606
I70830
s(I7
I5
I2
I3
I20161103
I0
tp607
I70817
s(I7
I5
I5
I59
I20161103
I0
tp608
I71357
s(I7
I6
I2
I93
I20161107
I0
tp609
I70190
s(I7
I7
I5
I29
I20161114
I0
tp610
I71602
s(I7
I5
I4
I106
I20161103
I0
tp611
I71284
s(I7
I7
I7
I34
I20161114
I0
tp612
I71810
s(I7
I5
I5
I30
I20161103
I0
tp613
I71328
s(I7
I5
I3
I32
I20161103
I1
tp614
I71024
s(I7
I5
I7
I96
I20161103
I0
tp615
I71972
s(I7
I6
I4
I95
I20161107
I0
tp616
I70392
s(I7
I6
I4
I25
I20161107
I0
tp617
I70322
s(I7
I6
I5
I61
I20161107
I0
tp618
I70458
s(I7
I6
I3
I76
I20161107
I0
tp619
I70272
s(I7
I5
I7
I111
I20161103
I0
tp620
I71987
s(I7
I6
I3
I45
I20161107
I0
tp621
I70241
s(I7
I5
I7
I120
I20161103
I0
tp622
I71996
s(I7
I6
I4
I85
I20161107
I0
tp623
I70382
s(I7
I6
I2
I8
I20161107
I0
tp624
I70105
s(I7
I7
I2
I33
I20161114
I0
tp625
I72127
s(I7
I7
I3
I95
I20161114
I0
tp626
I72288
s(I7
I5
I4
I42
I20161103
I1
tp627
I71220
s(I7
I7
I2
I57
I20161114
I0
tp628
I72151
s(I7
I5
I3
I34
I20161103
I0
tp629
I70969
s(I7
I6
I7
I19
I20161107
I0
tp630
I70613
s(I7
I6
I5
I62
I20161107
I0
tp631
I70459
s(I7
I6
I7
I77
I20161107
I0
tp632
I70671
s(I7
I5
I5
I107
I20161103
I0
tp633
I71405
s(I7
I6
I5
I31
I20161107
I0
tp634
I70428
s(I7
I7
I7
I31
I20161114
I0
tp635
I71807
s(I7
I6
I1
I58
I20161107
I0
tp636
I70057
s(I7
I5
I5
I104
I20161103
I0
tp637
I71402
s(I7
I7
I3
I98
I20161114
I0
tp638
I72291
s(I7
I7
I2
I50
I20161114
I0
tp639
I72144
s(I7
I7
I5
I85
I20161114
I0
tp640
I71658
s(I7
I7
I3
I77
I20161114
I0
tp641
I72270
s(I7
I5
I4
I33
I20161103
I1
tp642
I71211
s(I7
I7
I3
I99
I20161114
I0
tp643
I72292
s(I7
I7
I7
I78
I20161114
I0
tp644
I71854
s(I7
I6
I4
I24
I20161107
I0
tp645
I70321
s(I7
I6
I7
I74
I20161107
I0
tp646
I70668
s(I7
I6
I2
I33
I20161107
I0
tp647
I70130
s(I7
I7
I4
I79
I20161114
I0
tp648
I71551
s(I7
I5
I3
I112
I20161103
I0
tp649
I71104
s(I7
I6
I3
I46
I20161107
I0
tp650
I70242
s(I7
I7
I7
I6
I20161114
I0
tp651
I71782
s(I7
I6
I6
I89
I20161107
I0
tp652
I70585
s(I7
I7
I6
I88
I20161114
I0
tp653
I71763
s(I7
I7
I3
I51
I20161114
I0
tp654
I72244
s(I7
I7
I1
I56
I20161114
I0
tp655
I72052
s(I7
I5
I4
I9
I20161103
I0
tp656
I71121
s(I7
I6
I4
I27
I20161107
I0
tp657
I70324
s(I7
I7
I7
I95
I20161114
I0
tp658
I71871
s(I7
I5
I6
I38
I20161103
I0
tp659
I71455
s(I7
I7
I3
I61
I20161114
I0
tp660
I72254
s(I7
I7
I2
I36
I20161114
I0
tp661
I72130
s(I7
I5
I2
I22
I20161103
I0
tp662
I70836
s(I7
I5
I2
I1
I20161103
I0
tp663
I70815
s(I7
I7
I3
I8
I20161114
I0
tp664
I72201
s(I7
I5
I3
I39
I20161103
I1
tp665
I71031
s(I7
I5
I3
I21
I20161103
I1
tp666
I71013
s(I7
I6
I3
I66
I20161107
I0
tp667
I70262
s(I7
I5
I4
I100
I20161103
I0
tp668
I71278
s(I7
I5
I4
I91
I20161103
I0
tp669
I71269
s(I7
I5
I4
I74
I20161103
I0
tp670
I71252
s(I7
I5
I4
I96
I20161103
I0
tp671
I71274
s(I7
I6
I1
I16
I20161107
I0
tp672
I70015
s(I7
I6
I4
I63
I20161107
I0
tp673
I70360
s(I7
I6
I5
I56
I20161107
I0
tp674
I70453
s(I7
I6
I3
I71
I20161107
I0
tp675
I70267
s(I7
I7
I2
I59
I20161114
I0
tp676
I72153
s(I7
I7
I2
I19
I20161114
I0
tp677
I72113
s(I7
I7
I2
I89
I20161114
I0
tp678
I72183
s(I7
I5
I2
I111
I20161103
I0
tp679
I70925
s(I7
I5
I7
I11
I20161103
I0
tp680
I71887
s(I7
I5
I7
I45
I20161103
I0
tp681
I71921
s(I7
I6
I1
I91
I20161107
I0
tp682
I70090
s(I7
I6
I6
I67
I20161107
I0
tp683
I70563
s(I7
I6
I2
I47
I20161107
I0
tp684
I70144
s(I7
I6
I5
I99
I20161107
I0
tp685
I70496
s(I7
I6
I1
I26
I20161107
I0
tp686
I70025
s(I7
I7
I7
I39
I20161114
I0
tp687
I71815
s(I7
I7
I5
I46
I20161114
I0
tp688
I71619
s(I7
I5
I5
I76
I20161103
I0
tp689
I71374
s(I7
I5
I5
I93
I20161103
I0
tp690
I71391
s(I7
I5
I4
I1
I20161103
I1
tp691
I71179
s(I7
I5
I5
I42
I20161103
I0
tp692
I71340
s(I7
I6
I3
I4
I20161107
I0
tp693
I70200
s(I7
I5
I4
I109
I20161103
I0
tp694
I71287
s(I7
I5
I5
I13
I20161103
I0
tp695
I71311
s(I7
I7
I5
I100
I20161114
I0
tp696
I71673
s(I7
I7
I1
I17
I20161114
I0
tp697
I72013
s(I7
I7
I5
I44
I20161114
I0
tp698
I71617
s(I7
I5
I5
I26
I20161103
I0
tp699
I71324
s(I7
I6
I4
I29
I20161107
I0
tp700
I70326
s(I7
I6
I2
I42
I20161107
I0
tp701
I70139
s(I7
I7
I4
I87
I20161114
I0
tp702
I71559
s(I7
I6
I3
I64
I20161107
I0
tp703
I70260
s(I7
I6
I3
I14
I20161107
I0
tp704
I70210
s(I7
I5
I1
I52
I20161103
I0
tp705
I70745
s(I7
I5
I7
I109
I20161103
I0
tp706
I71985
s(I7
I5
I1
I69
I20161103
I0
tp707
I70762
s(I7
I5
I1
I35
I20161103
I0
tp708
I70728
s(I7
I5
I1
I48
I20161103
I0
tp709
I70741
s(I7
I7
I2
I87
I20161114
I0
tp710
I72181
s(I7
I5
I3
I116
I20161103
I0
tp711
I71108
s(I7
I6
I7
I56
I20161107
I0
tp712
I70650
s(I7
I5
I3
I101
I20161103
I0
tp713
I71093
s(I7
I7
I1
I32
I20161114
I0
tp714
I72028
s(I7
I5
I3
I86
I20161103
I0
tp715
I71078
s(I7
I6
I5
I44
I20161107
I0
tp716
I70441
s(I7
I5
I3
I68
I20161103
I0
tp717
I71060
s(I7
I5
I3
I53
I20161103
I0
tp718
I70988
s(I7
I7
I1
I97
I20161114
I0
tp719
I72093
s(I7
I5
I3
I38
I20161103
I0
tp720
I70973
s(I7
I6
I4
I70
I20161107
I0
tp721
I70367
s(I7
I5
I7
I101
I20161103
I0
tp722
I71977
s(I7
I6
I5
I96
I20161107
I0
tp723
I70493
s(I7
I5
I6
I47
I20161103
I0
tp724
I71464
s(I7
I6
I4
I81
I20161107
I0
tp725
I70378
s(I7
I5
I3
I37
I20161103
I1
tp726
I71029
s(I7
I7
I6
I84
I20161114
I0
tp727
I71759
s(I7
I5
I3
I7
I20161103
I1
tp728
I70999
s(I7
I5
I6
I13
I20161103
I0
tp729
I71430
s(I7
I6
I3
I100
I20161107
I0
tp730
I70296
s(I7
I5
I3
I13
I20161103
I1
tp731
I71005
s(I7
I7
I1
I53
I20161114
I0
tp732
I72049
s(I7
I6
I1
I54
I20161107
I0
tp733
I70053
s(I7
I6
I2
I22
I20161107
I0
tp734
I70119
s(I7
I7
I4
I12
I20161114
I0
tp735
I71484
s(I7
I7
I6
I83
I20161114
I0
tp736
I71758
s(I7
I7
I6
I91
I20161114
I0
tp737
I71766
s(I7
I5
I3
I4
I20161103
I1
tp738
I70996
s(I7
I5
I4
I30
I20161103
I0
tp739
I71142
s(I7
I5
I4
I13
I20161103
I0
tp740
I71125
s(I7
I7
I2
I51
I20161114
I0
tp741
I72145
s(I7
I5
I7
I49
I20161103
I0
tp742
I71925
s(I7
I7
I4
I90
I20161114
I0
tp743
I71562
s(I7
I5
I7
I13
I20161103
I0
tp744
I71889
s(I7
I6
I2
I4
I20161107
I0
tp745
I70101
s(I7
I5
I7
I36
I20161103
I0
tp746
I71912
s(I7
I6
I3
I42
I20161107
I0
tp747
I70238
s(I7
I6
I1
I65
I20161107
I0
tp748
I70064
s(I7
I5
I7
I53
I20161103
I0
tp749
I71929
s(I7
I6
I4
I42
I20161107
I0
tp750
I70339
s(I7
I7
I6
I75
I20161114
I0
tp751
I71750
s(I7
I7
I3
I39
I20161114
I0
tp752
I72232
s(I7
I6
I2
I73
I20161107
I0
tp753
I70170
s(I7
I6
I2
I15
I20161107
I0
tp754
I70112
s(I7
I5
I2
I18
I20161103
I0
tp755
I70832
s(I7
I6
I3
I35
I20161107
I0
tp756
I70231
s(I7
I6
I1
I70
I20161107
I0
tp757
I70069
s(I7
I5
I2
I42
I20161103
I0
tp758
I70856
s(I7
I5
I5
I44
I20161103
I0
tp759
I71342
s(I7
I7
I6
I78
I20161114
I0
tp760
I71753
s(I7
I5
I5
I61
I20161103
I0
tp761
I71359
s(I7
I5
I1
I117
I20161103
I0
tp762
I70810
s(I7
I5
I5
I68
I20161103
I0
tp763
I71366
s(I7
I6
I3
I97
I20161107
I0
tp764
I70293
s(I7
I5
I5
I85
I20161103
I0
tp765
I71383
s(I7
I5
I5
I52
I20161103
I0
tp766
I71350
s(I7
I6
I5
I25
I20161107
I0
tp767
I70422
s(I7
I6
I3
I32
I20161107
I0
tp768
I70228
s(I7
I6
I5
I71
I20161107
I0
tp769
I70468
s(I7
I7
I5
I98
I20161114
I0
tp770
I71671
s(I7
I5
I3
I99
I20161103
I0
tp771
I71091
s(I7
I5
I3
I84
I20161103
I0
tp772
I71076
s(I7
I5
I3
I69
I20161103
I0
tp773
I71061
s(I7
I6
I3
I17
I20161107
I0
tp774
I70213
s(I7
I7
I3
I76
I20161114
I0
tp775
I72269
s(I7
I5
I3
I36
I20161103
I0
tp776
I70971
s(I7
I7
I1
I71
I20161114
I0
tp777
I72067
s(I7
I7
I2
I38
I20161114
I0
tp778
I72132
s(I7
I6
I7
I41
I20161107
I0
tp779
I70635
s(I7
I6
I2
I14
I20161107
I0
tp780
I70111
s(I7
I6
I5
I64
I20161107
I0
tp781
I70461
s(I7
I6
I1
I21
I20161107
I0
tp782
I70020
s(I7
I7
I5
I34
I20161114
I0
tp783
I71607
s(I7
I5
I6
I11
I20161103
I0
tp784
I71428
s(I7
I5
I6
I26
I20161103
I0
tp785
I71443
s(I7
I5
I3
I29
I20161103
I1
tp786
I71021
s(I7
I5
I6
I35
I20161103
I0
tp787
I71452
s(I7
I7
I3
I26
I20161114
I0
tp788
I72219
s(I7
I7
I2
I76
I20161114
I0
tp789
I72170
s(I7
I7
I5
I49
I20161114
I0
tp790
I71622
s(I7
I7
I3
I67
I20161114
I0
tp791
I72260
s(I7
I7
I7
I46
I20161114
I0
tp792
I71822
s(I7
I5
I4
I39
I20161103
I1
tp793
I71217
s(I7
I7
I1
I40
I20161114
I0
tp794
I72036
s(I7
I5
I6
I19
I20161103
I0
tp795
I71436
s(I7
I7
I7
I22
I20161114
I0
tp796
I71798
s(I7
I6
I2
I13
I20161107
I0
tp797
I70110
s(I7
I7
I1
I27
I20161114
I0
tp798
I72023
s(I7
I6
I1
I22
I20161107
I0
tp799
I70021
s(I7
I6
I3
I53
I20161107
I0
tp800
I70249
s(I7
I6
I1
I98
I20161107
I0
tp801
I70097
s(I7
I6
I1
I92
I20161107
I0
tp802
I70091
s(I7
I5
I4
I63
I20161103
I0
tp803
I71175
s(I7
I7
I3
I14
I20161114
I0
tp804
I72207
s(I7
I5
I4
I46
I20161103
I0
tp805
I71158
s(I7
I5
I1
I22
I20161103
I0
tp806
I70715
s(I7
I5
I4
I24
I20161103
I0
tp807
I71136
s(I7
I5
I4
I15
I20161103
I0
tp808
I71127
s(I7
I7
I1
I2
I20161114
I0
tp809
I71998
s(I7
I7
I6
I13
I20161114
I0
tp810
I71688
s(I7
I7
I4
I6
I20161114
I0
tp811
I71478
s(I7
I6
I3
I10
I20161107
I0
tp812
I70206
s(I7
I6
I4
I48
I20161107
I0
tp813
I70345
s(I7
I7
I5
I42
I20161114
I0
tp814
I71615
s(I7
I7
I4
I40
I20161114
I0
tp815
I71512
s(I7
I5
I2
I75
I20161103
I0
tp816
I70889
s(I7
I6
I2
I41
I20161107
I0
tp817
I70138
s(I7
I5
I2
I40
I20161103
I0
tp818
I70854
s(I7
I5
I2
I27
I20161103
I0
tp819
I70841
s(I7
I5
I2
I10
I20161103
I0
tp820
I70824
s(I7
I5
I2
I44
I20161103
I0
tp821
I70858
s(I7
I7
I6
I2
I20161114
I0
tp822
I71677
s(I7
I7
I6
I32
I20161114
I0
tp823
I71707
s(I7
I6
I2
I24
I20161107
I0
tp824
I70121
s(I7
I6
I6
I80
I20161107
I0
tp825
I70576
s(I7
I6
I1
I93
I20161107
I0
tp826
I70092
s(I7
I7
I5
I37
I20161114
I0
tp827
I71610
s(I7
I6
I6
I93
I20161107
I0
tp828
I70589
s(I7
I5
I5
I117
I20161103
I0
tp829
I71415
s(I7
I6
I4
I73
I20161107
I0
tp830
I70370
s(I7
I7
I6
I72
I20161114
I0
tp831
I71747
s(I7
I7
I4
I5
I20161114
I0
tp832
I71477
s(I7
I7
I7
I32
I20161114
I0
tp833
I71808
s(I7
I5
I7
I103
I20161103
I0
tp834
I71979
s(I7
I6
I3
I11
I20161107
I0
tp835
I70207
s(I7
I5
I1
I105
I20161103
I0
tp836
I70798
s(I7
I5
I7
I70
I20161103
I0
tp837
I71946
s(I7
I7
I7
I73
I20161114
I0
tp838
I71849
s(I7
I5
I7
I87
I20161103
I0
tp839
I71963
s(I7
I5
I7
I32
I20161103
I0
tp840
I71908
s(I7
I6
I1
I14
I20161107
I0
tp841
I70013
s(I7
I5
I3
I24
I20161103
I0
tp842
I70959
s(I7
I5
I3
I9
I20161103
I0
tp843
I70944
s(I7
I5
I6
I3
I20161103
I0
tp844
I71420
s(I7
I6
I7
I23
I20161107
I0
tp845
I70617
s(I7
I6
I5
I50
I20161107
I0
tp846
I70447
s(I7
I5
I5
I115
I20161103
I0
tp847
I71413
s(I7
I7
I7
I54
I20161114
I0
tp848
I71830
s(I7
I5
I4
I47
I20161103
I1
tp849
I71225
s(I7
I5
I5
I64
I20161103
I0
tp850
I71362
s(I7
I6
I3
I50
I20161107
I0
tp851
I70246
s(I7
I7
I7
I4
I20161114
I0
tp852
I71780
s(I7
I6
I3
I47
I20161107
I0
tp853
I70243
s(I7
I6
I1
I66
I20161107
I0
tp854
I70065
s(I7
I5
I1
I6
I20161103
I0
tp855
I70699
s(I7
I7
I3
I46
I20161114
I0
tp856
I72239
s(I7
I6
I2
I71
I20161107
I0
tp857
I70168
s(I7
I7
I2
I15
I20161114
I0
tp858
I72109
s(I7
I5
I1
I54
I20161103
I0
tp859
I70747
s(I7
I5
I3
I118
I20161103
I0
tp860
I71110
s(I7
I5
I1
I9
I20161103
I0
tp861
I70702
s(I7
I5
I3
I103
I20161103
I0
tp862
I71095
s(I7
I5
I1
I30
I20161103
I0
tp863
I70723
s(I7
I7
I2
I45
I20161114
I0
tp864
I72139
s(I7
I6
I7
I78
I20161107
I0
tp865
I70672
s(I7
I7
I1
I10
I20161114
I0
tp866
I72006
s(I7
I6
I7
I99
I20161107
I0
tp867
I70693
s(I7
I7
I4
I94
I20161114
I0
tp868
I71566
s(I7
I7
I4
I38
I20161114
I0
tp869
I71510
s(I7
I6
I5
I91
I20161107
I0
tp870
I70488
s(I7
I7
I4
I14
I20161114
I0
tp871
I71486
s(I7
I7
I7
I35
I20161114
I0
tp872
I71811
s(I7
I7
I4
I81
I20161114
I0
tp873
I71553
s(I7
I7
I5
I61
I20161114
I0
tp874
I71634
s(I7
I7
I6
I64
I20161114
I0
tp875
I71739
s(I7
I6
I2
I2
I20161107
I0
tp876
I70099
s(I7
I7
I6
I26
I20161114
I0
tp877
I71701
s(I7
I6
I3
I22
I20161107
I0
tp878
I70218
s(I7
I6
I1
I61
I20161107
I0
tp879
I70060
s(I7
I6
I1
I32
I20161107
I0
tp880
I70031
s(I7
I6
I2
I60
I20161107
I0
tp881
I70157
s(I7
I7
I3
I72
I20161114
I0
tp882
I72265
s(I7
I6
I7
I1
I20161107
I0
tp883
I70595
s(I7
I6
I5
I40
I20161107
I0
tp884
I70437
s(I7
I7
I7
I10
I20161114
I0
tp885
I71786
s(I7
I6
I6
I70
I20161107
I0
tp886
I70566
s(I7
I5
I3
I56
I20161103
I1
tp887
I71048
s(I7
I5
I7
I118
I20161103
I0
tp888
I71994
s(I7
I5
I7
I71
I20161103
I0
tp889
I71947
s(I7
I7
I7
I40
I20161114
I0
tp890
I71816
s(I7
I6
I4
I62
I20161107
I0
tp891
I70359
s(I7
I5
I7
I80
I20161103
I0
tp892
I71956
s(I7
I6
I2
I75
I20161107
I0
tp893
I70172
s(I7
I5
I3
I8
I20161103
I1
tp894
I71000
s(I7
I5
I7
I38
I20161103
I0
tp895
I71914
s(I7
I7
I4
I68
I20161114
I0
tp896
I71540
s(I7
I5
I7
I55
I20161103
I0
tp897
I71931
s(I7
I5
I7
I78
I20161103
I0
tp898
I71954
s(I7
I5
I7
I95
I20161103
I0
tp899
I71971
s(I7
I5
I4
I50
I20161103
I1
tp900
I71228
s(I7
I7
I7
I70
I20161114
I0
tp901
I71846
s(I7
I7
I5
I82
I20161114
I0
tp902
I71655
s(I7
I7
I1
I30
I20161114
I0
tp903
I72026
s(I7
I5
I2
I105
I20161103
I0
tp904
I70919
s(I7
I5
I4
I16
I20161103
I1
tp905
I71194
s(I7
I7
I5
I30
I20161114
I0
tp906
I71603
s(I7
I5
I5
I99
I20161103
I0
tp907
I71397
s(I7
I7
I7
I55
I20161114
I0
tp908
I71831
s(I7
I5
I2
I57
I20161103
I0
tp909
I70871
s(I7
I6
I6
I21
I20161107
I0
tp910
I70517
s(I7
I5
I5
I66
I20161103
I0
tp911
I71364
s(I7
I5
I5
I83
I20161103
I0
tp912
I71381
s(I7
I6
I1
I27
I20161107
I0
tp913
I70026
s(I7
I5
I4
I11
I20161103
I1
tp914
I71189
s(I7
I5
I4
I19
I20161103
I1
tp915
I71197
s(I7
I7
I1
I69
I20161114
I0
tp916
I72065
s(I7
I7
I5
I27
I20161114
I0
tp917
I71600
s(I7
I5
I1
I24
I20161103
I0
tp918
I70717
s(I7
I7
I2
I47
I20161114
I0
tp919
I72141
s(I7
I6
I2
I78
I20161107
I0
tp920
I70175
s(I7
I7
I7
I90
I20161114
I0
tp921
I71866
s(I7
I7
I2
I7
I20161114
I0
tp922
I72101
s(I7
I5
I3
I110
I20161103
I0
tp923
I71102
s(I7
I7
I1
I16
I20161114
I0
tp924
I72012
s(I7
I7
I4
I20
I20161114
I0
tp925
I71492
s(I7
I5
I3
I95
I20161103
I0
tp926
I71087
s(I7
I5
I1
I58
I20161103
I0
tp927
I70751
s(I7
I5
I1
I75
I20161103
I0
tp928
I70768
s(I7
I6
I1
I94
I20161107
I0
tp929
I70093
s(I7
I7
I7
I13
I20161114
I0
tp930
I71789
s(I7
I6
I1
I63
I20161107
I0
tp931
I70062
s(I7
I5
I3
I28
I20161103
I0
tp932
I70963
s(I7
I5
I4
I90
I20161103
I0
tp933
I71268
s(I7
I5
I6
I37
I20161103
I0
tp934
I71454
s(I7
I5
I7
I116
I20161103
I0
tp935
I71992
s(I7
I7
I1
I4
I20161114
I0
tp936
I72000
s(I7
I5
I6
I52
I20161103
I0
tp937
I71469
s(I7
I5
I6
I33
I20161103
I0
tp938
I71450
s(I7
I6
I3
I8
I20161107
I0
tp939
I70204
s(I7
I7
I4
I7
I20161114
I0
tp940
I71479
s(I7
I5
I7
I69
I20161103
I0
tp941
I71945
s(I7
I7
I3
I74
I20161114
I0
tp942
I72267
s(I7
I6
I2
I38
I20161107
I0
tp943
I70135
s(I7
I6
I2
I96
I20161107
I0
tp944
I70193
s(I7
I7
I3
I34
I20161114
I0
tp945
I72227
s(I7
I5
I4
I69
I20161103
I0
tp946
I71247
s(I7
I5
I4
I99
I20161103
I0
tp947
I71277
s(I7
I6
I5
I54
I20161107
I0
tp948
I70451
s(I7
I5
I4
I82
I20161103
I0
tp949
I71260
s(I7
I7
I7
I42
I20161114
I0
tp950
I71818
s(I7
I6
I6
I38
I20161107
I0
tp951
I70534
s(I7
I5
I4
I65
I20161103
I0
tp952
I71177
s(I7
I6
I7
I68
I20161107
I0
tp953
I70662
s(I7
I6
I4
I30
I20161107
I0
tp954
I70327
s(I7
I5
I4
I34
I20161103
I0
tp955
I71146
s(I7
I6
I7
I37
I20161107
I0
tp956
I70631
s(I7
I7
I5
I74
I20161114
I0
tp957
I71647
s(I7
I7
I4
I8
I20161114
I0
tp958
I71480
s(I7
I7
I4
I42
I20161114
I0
tp959
I71514
s(I7
I7
I4
I100
I20161114
I0
tp960
I71572
s(I7
I6
I4
I90
I20161107
I0
tp961
I70387
s(I7
I5
I4
I18
I20161103
I1
tp962
I71196
s(I7
I5
I2
I94
I20161103
I0
tp963
I70908
s(I7
I7
I1
I18
I20161114
I0
tp964
I72014
s(I7
I7
I2
I49
I20161114
I0
tp965
I72143
s(I7
I5
I7
I51
I20161103
I0
tp966
I71927
s(I7
I5
I2
I73
I20161103
I0
tp967
I70887
s(I7
I6
I7
I82
I20161107
I0
tp968
I70676
s(I7
I5
I2
I118
I20161103
I0
tp969
I70932
s(I7
I5
I7
I12
I20161103
I0
tp970
I71888
s(I7
I7
I1
I6
I20161114
I0
tp971
I72002
s(I7
I5
I2
I97
I20161103
I0
tp972
I70911
s(I7
I5
I7
I29
I20161103
I0
tp973
I71905
s(I7
I7
I7
I17
I20161114
I0
tp974
I71793
s(I7
I5
I2
I87
I20161103
I0
tp975
I70901
s(I7
I7
I6
I38
I20161114
I0
tp976
I71713
s(I7
I5
I2
I70
I20161103
I0
tp977
I70884
s(I7
I7
I6
I30
I20161114
I0
tp978
I71705
s(I7
I6
I7
I75
I20161107
I0
tp979
I70669
s(I7
I6
I1
I1
I20161107
I0
tp980
I70000
s(I7
I5
I5
I55
I20161103
I0
tp981
I71353
s(I7
I7
I2
I46
I20161114
I0
tp982
I72140
s(I7
I5
I5
I47
I20161103
I0
tp983
I71345
s(I7
I7
I4
I77
I20161114
I0
tp984
I71549
s(I7
I6
I5
I9
I20161107
I0
tp985
I70406
s(I7
I5
I5
I60
I20161103
I0
tp986
I71358
s(I7
I6
I6
I33
I20161107
I0
tp987
I70529
s(I7
I5
I5
I14
I20161103
I0
tp988
I71312
s(I7
I5
I5
I31
I20161103
I0
tp989
I71329
s(I7
I7
I5
I38
I20161114
I0
tp990
I71611
s(I7
I5
I1
I90
I20161103
I0
tp991
I70783
s(I7
I6
I2
I48
I20161107
I0
tp992
I70145
s(I7
I5
I1
I107
I20161103
I0
tp993
I70800
s(I7
I5
I3
I59
I20161103
I0
tp994
I71051
s(I7
I5
I1
I66
I20161103
I0
tp995
I70759
s(I7
I7
I3
I84
I20161114
I0
tp996
I72277
s(I7
I5
I3
I44
I20161103
I0
tp997
I70979
s(I7
I5
I1
I83
I20161103
I0
tp998
I70776
s(I7
I7
I2
I4
I20161114
I0
tp999
I72098
s(I7
I5
I3
I83
I20161103
I0
tp1000
I71075
s(I7
I7
I6
I61
I20161114
I0
tp1001
I71736
s(I7
I6
I7
I25
I20161107
I0
tp1002
I70619
s(I7
I5
I3
I11
I20161103
I0
tp1003
I70946
s(I7
I5
I1
I114
I20161103
I0
tp1004
I70807
s(I7
I5
I3
I50
I20161103
I0
tp1005
I70985
s(I7
I5
I3
I35
I20161103
I0
tp1006
I70970
s(I7
I5
I3
I20
I20161103
I0
tp1007
I70955
s(I7
I7
I1
I36
I20161114
I0
tp1008
I72032
s(I7
I6
I6
I46
I20161107
I0
tp1009
I70542
s(I7
I7
I4
I64
I20161114
I0
tp1010
I71536
s(I7
I7
I5
I33
I20161114
I0
tp1011
I71606
s(I7
I6
I6
I69
I20161107
I0
tp1012
I70565
s(I7
I5
I3
I19
I20161103
I1
tp1013
I71011
s(I7
I7
I7
I57
I20161114
I0
tp1014
I71833
s(I7
I6
I3
I69
I20161107
I0
tp1015
I70265
s(I7
I7
I7
I64
I20161114
I0
tp1016
I71840
s(I7
I7
I4
I35
I20161114
I0
tp1017
I71507
s(I7
I5
I4
I23
I20161103
I1
tp1018
I71201
s(I7
I7
I3
I21
I20161114
I0
tp1019
I72214
s(I7
I5
I4
I67
I20161103
I0
tp1020
I71245
s(I7
I6
I1
I23
I20161107
I0
tp1021
I70022
s(I7
I6
I7
I63
I20161107
I0
tp1022
I70657
s(I7
I7
I1
I57
I20161114
I0
tp1023
I72053
s(I7
I7
I4
I74
I20161114
I0
tp1024
I71546
s(I7
I7
I4
I16
I20161114
I0
tp1025
I71488
s(I7
I6
I1
I28
I20161107
I0
tp1026
I70027
s(I7
I5
I7
I2
I20161103
I0
tp1027
I71878
s(I7
I5
I2
I103
I20161103
I0
tp1028
I70917
s(I7
I5
I7
I19
I20161103
I0
tp1029
I71895
s(I7
I6
I5
I42
I20161107
I0
tp1030
I70439
s(I7
I5
I5
I116
I20161103
I0
tp1031
I71414
s(I7
I7
I6
I85
I20161114
I0
tp1032
I71760
s(I7
I6
I5
I11
I20161107
I0
tp1033
I70408
s(I7
I6
I3
I54
I20161107
I0
tp1034
I70250
s(I7
I7
I3
I87
I20161114
I0
tp1035
I72280
s(I7
I6
I4
I76
I20161107
I0
tp1036
I70373
s(I7
I7
I6
I62
I20161114
I0
tp1037
I71737
s(I7
I7
I6
I86
I20161114
I0
tp1038
I71761
s(I7
I6
I2
I40
I20161107
I0
tp1039
I70137
s(I7
I5
I2
I21
I20161103
I0
tp1040
I70835
s(I7
I5
I2
I4
I20161103
I0
tp1041
I70818
s(I7
I5
I5
I62
I20161103
I0
tp1042
I71360
s(I7
I5
I5
I15
I20161103
I0
tp1043
I71313
s(I7
I6
I7
I54
I20161107
I0
tp1044
I70648
s(I7
I5
I5
I28
I20161103
I0
tp1045
I71326
s(I7
I6
I6
I1
I20161107
I0
tp1046
I70497
s(I7
I6
I5
I93
I20161107
I0
tp1047
I70490
s(I7
I5
I4
I112
I20161103
I0
tp1048
I71290
s(I7
I7
I7
I8
I20161114
I0
tp1049
I71784
s(I7
I6
I6
I26
I20161107
I0
tp1050
I70522
s(I7
I6
I6
I92
I20161107
I0
tp1051
I70588
s(I7
I5
I7
I105
I20161103
I0
tp1052
I71981
s(I7
I7
I5
I60
I20161114
I0
tp1053
I71633
s(I7
I7
I4
I18
I20161114
I0
tp1054
I71490
s(I7
I7
I3
I86
I20161114
I0
tp1055
I72279
s(I7
I5
I3
I66
I20161103
I0
tp1056
I71058
s(I7
I5
I3
I51
I20161103
I0
tp1057
I70986
s(I7
I6
I7
I51
I20161107
I0
tp1058
I70645
s(I7
I5
I3
I18
I20161103
I0
tp1059
I70953
s(I7
I5
I3
I3
I20161103
I0
tp1060
I70938
s(I7
I5
I4
I62
I20161103
I1
tp1061
I71240
s(I7
I5
I2
I114
I20161103
I0
tp1062
I70928
s(I7
I7
I7
I83
I20161114
I0
tp1063
I71859
s(I7
I7
I4
I96
I20161114
I0
tp1064
I71568
s(I7
I7
I5
I63
I20161114
I0
tp1065
I71636
s(I7
I7
I5
I87
I20161114
I0
tp1066
I71660
s(I7
I7
I5
I25
I20161114
I0
tp1067
I71598
s(I7
I7
I6
I66
I20161114
I0
tp1068
I71741
s(I7
I5
I4
I17
I20161103
I1
tp1069
I71195
s(I7
I5
I4
I57
I20161103
I1
tp1070
I71235
s(I7
I7
I7
I52
I20161114
I0
tp1071
I71828
s(I7
I6
I4
I34
I20161107
I0
tp1072
I70331
s(I7
I5
I4
I45
I20161103
I1
tp1073
I71223
s(I7
I6
I2
I87
I20161107
I0
tp1074
I70184
s(I7
I7
I6
I82
I20161114
I0
tp1075
I71757
s(I7
I6
I2
I19
I20161107
I0
tp1076
I70116
s(I7
I6
I7
I27
I20161107
I0
tp1077
I70621
s(I7
I5
I1
I1
I20161103
I0
tp1078
I70694
s(I7
I7
I1
I31
I20161114
I0
tp1079
I72027
s(I7
I5
I1
I32
I20161103
I0
tp1080
I70725
s(I7
I5
I1
I49
I20161103
I0
tp1081
I70742
s(I7
I7
I3
I9
I20161114
I0
tp1082
I72202
s(I7
I6
I1
I2
I20161107
I0
tp1083
I70001
s(I7
I5
I1
I70
I20161103
I0
tp1084
I70763
s(I7
I5
I4
I6
I20161103
I0
tp1085
I71118
s(I7
I6
I6
I12
I20161107
I0
tp1086
I70508
s(I7
I6
I4
I37
I20161107
I0
tp1087
I70334
s(I7
I7
I7
I27
I20161114
I0
tp1088
I71803
s(I7
I6
I5
I10
I20161107
I0
tp1089
I70407
s(I7
I7
I2
I94
I20161114
I0
tp1090
I72188
s(I7
I7
I6
I79
I20161114
I0
tp1091
I71754
s(I7
I6
I5
I17
I20161107
I0
tp1092
I70414
s(I7
I7
I3
I11
I20161114
I0
tp1093
I72204
s(I7
I6
I3
I40
I20161107
I0
tp1094
I70236
s(I7
I6
I6
I7
I20161107
I0
tp1095
I70503
s(I7
I6
I4
I44
I20161107
I0
tp1096
I70341
s(I7
I6
I3
I98
I20161107
I0
tp1097
I70294
s(I7
I6
I5
I78
I20161107
I0
tp1098
I70475
s(I7
I5
I3
I23
I20161103
I1
tp1099
I71015
s(I7
I5
I5
I111
I20161103
I0
tp1100
I71409
s(I7
I5
I3
I49
I20161103
I1
tp1101
I71041
s(I7
I7
I4
I83
I20161114
I0
tp1102
I71555
s(I7
I5
I2
I13
I20161103
I0
tp1103
I70827
s(I7
I5
I4
I119
I20161103
I0
tp1104
I71297
s(I7
I6
I7
I80
I20161107
I0
tp1105
I70674
s(I7
I6
I7
I22
I20161107
I0
tp1106
I70616
s(I7
I5
I4
I80
I20161103
I0
tp1107
I71258
s(I7
I7
I6
I76
I20161114
I0
tp1108
I71751
s(I7
I6
I7
I49
I20161107
I0
tp1109
I70643
s(I7
I5
I4
I71
I20161103
I0
tp1110
I71249
s(I7
I6
I5
I88
I20161107
I0
tp1111
I70485
s(I7
I5
I4
I120
I20161103
I0
tp1112
I71298
s(I7
I7
I6
I36
I20161114
I0
tp1113
I71711
s(I7
I7
I7
I16
I20161114
I0
tp1114
I71792
s(I7
I6
I6
I60
I20161107
I0
tp1115
I70556
s(I7
I5
I4
I111
I20161103
I0
tp1116
I71289
s(I7
I6
I7
I90
I20161107
I0
tp1117
I70684
s(I7
I7
I6
I15
I20161114
I0
tp1118
I71690
s(I7
I7
I6
I33
I20161114
I0
tp1119
I71708
s(I7
I5
I3
I16
I20161103
I1
tp1120
I71008
s(I7
I7
I5
I66
I20161114
I0
tp1121
I71639
s(I7
I5
I7
I61
I20161103
I0
tp1122
I71937
s(I7
I5
I4
I56
I20161103
I1
tp1123
I71234
s(I7
I7
I7
I98
I20161114
I0
tp1124
I71874
s(I7
I5
I7
I99
I20161103
I0
tp1125
I71975
s(I7
I5
I2
I112
I20161103
I0
tp1126
I70926
s(I7
I5
I7
I98
I20161103
I0
tp1127
I71974
s(I7
I5
I7
I37
I20161103
I0
tp1128
I71913
s(I7
I5
I2
I99
I20161103
I0
tp1129
I70913
s(I7
I6
I3
I23
I20161107
I0
tp1130
I70219
s(I7
I5
I7
I54
I20161103
I0
tp1131
I71930
s(I7
I6
I4
I43
I20161107
I0
tp1132
I70340
s(I7
I6
I3
I12
I20161107
I0
tp1133
I70208
s(I7
I6
I1
I24
I20161107
I0
tp1134
I70023
s(I7
I7
I5
I55
I20161114
I0
tp1135
I71628
s(I7
I5
I5
I74
I20161103
I0
tp1136
I71372
s(I7
I7
I2
I74
I20161114
I0
tp1137
I72168
s(I7
I5
I5
I45
I20161103
I0
tp1138
I71343
s(I7
I7
I1
I94
I20161114
I0
tp1139
I72090
s(I7
I5
I5
I58
I20161103
I0
tp1140
I71356
s(I7
I7
I7
I82
I20161114
I0
tp1141
I71858
s(I7
I5
I5
I69
I20161103
I0
tp1142
I71367
s(I7
I7
I4
I55
I20161114
I0
tp1143
I71527
s(I7
I6
I5
I19
I20161107
I0
tp1144
I70416
s(I7
I5
I4
I25
I20161103
I1
tp1145
I71203
s(I7
I6
I4
I72
I20161107
I0
tp1146
I70369
s(I7
I6
I4
I2
I20161107
I0
tp1147
I70299
s(I7
I6
I5
I36
I20161107
I0
tp1148
I70433
s(I7
I6
I3
I91
I20161107
I0
tp1149
I70287
s(I7
I5
I1
I3
I20161103
I0
tp1150
I70696
s(I7
I7
I5
I35
I20161114
I0
tp1151
I71608
s(I7
I5
I1
I16
I20161103
I0
tp1152
I70709
s(I7
I7
I2
I55
I20161114
I0
tp1153
I72149
s(I7
I6
I1
I35
I20161107
I0
tp1154
I70034
s(I7
I5
I1
I33
I20161103
I0
tp1155
I70726
s(I7
I7
I4
I76
I20161114
I0
tp1156
I71548
s(I7
I5
I1
I51
I20161103
I0
tp1157
I70744
s(I7
I6
I4
I79
I20161107
I0
tp1158
I70376
s(I7
I5
I1
I89
I20161103
I0
tp1159
I70782
s(I7
I5
I1
I64
I20161103
I0
tp1160
I70757
s(I7
I5
I1
I81
I20161103
I0
tp1161
I70774
s(I7
I5
I3
I85
I20161103
I0
tp1162
I71077
s(I7
I5
I1
I40
I20161103
I0
tp1163
I70733
s(I7
I5
I3
I70
I20161103
I0
tp1164
I71062
s(I7
I5
I3
I96
I20161103
I0
tp1165
I71088
s(I7
I7
I7
I29
I20161114
I0
tp1166
I71805
s(I7
I5
I3
I81
I20161103
I0
tp1167
I71073
s(I7
I6
I6
I88
I20161107
I0
tp1168
I70584
s(I7
I7
I7
I5
I20161114
I0
tp1169
I71781
s(I7
I7
I7
I59
I20161114
I0
tp1170
I71835
s(I7
I7
I1
I50
I20161114
I0
tp1171
I72046
s(I7
I6
I6
I25
I20161107
I0
tp1172
I70521
s(I7
I6
I6
I83
I20161107
I0
tp1173
I70579
s(I7
I5
I3
I45
I20161103
I1
tp1174
I71037
s(I7
I5
I3
I17
I20161103
I1
tp1175
I71009
s(I7
I5
I6
I39
I20161103
I0
tp1176
I71456
s(I7
I5
I6
I54
I20161103
I0
tp1177
I71471
s(I7
I5
I3
I41
I20161103
I1
tp1178
I71033
s(I7
I7
I1
I21
I20161114
I0
tp1179
I72017
s(I7
I6
I4
I1
I20161107
I0
tp1180
I70298
s(I7
I6
I2
I54
I20161107
I0
tp1181
I70151
s(I7
I7
I4
I91
I20161114
I0
tp1182
I71563
s(I7
I6
I7
I48
I20161107
I0
tp1183
I70642
s(I7
I6
I7
I17
I20161107
I0
tp1184
I70611
s(I7
I6
I3
I52
I20161107
I0
tp1185
I70248
s(I7
I6
I6
I86
I20161107
I0
tp1186
I70582
s(I7
I7
I6
I49
I20161114
I0
tp1187
I71724
s(I7
I5
I3
I30
I20161103
I1
tp1188
I71022
s(I7
I5
I4
I75
I20161103
I0
tp1189
I71253
s(I7
I5
I4
I58
I20161103
I0
tp1190
I71170
s(I7
I5
I7
I68
I20161103
I0
tp1191
I71944
s(I7
I5
I7
I85
I20161103
I0
tp1192
I71961
s(I7
I6
I4
I74
I20161107
I0
tp1193
I70371
s(I7
I5
I4
I27
I20161103
I0
tp1194
I71139
s(I7
I7
I2
I9
I20161114
I0
tp1195
I72103
s(I7
I5
I4
I10
I20161103
I0
tp1196
I71122
s(I7
I5
I7
I52
I20161103
I0
tp1197
I71928
s(I7
I5
I7
I5
I20161103
I0
tp1198
I71881
s(I7
I6
I5
I60
I20161107
I0
tp1199
I70457
s(I7
I5
I7
I22
I20161103
I0
tp1200
I71898
s(I7
I6
I4
I11
I20161107
I0
tp1201
I70308
s(I7
I6
I3
I67
I20161107
I0
tp1202
I70263
s(I7
I6
I2
I82
I20161107
I0
tp1203
I70179
s(I7
I5
I2
I95
I20161103
I0
tp1204
I70909
s(I7
I5
I4
I2
I20161103
I1
tp1205
I71180
s(I7
I5
I2
I78
I20161103
I0
tp1206
I70892
s(I7
I5
I5
I100
I20161103
I0
tp1207
I71398
s(I7
I5
I2
I60
I20161103
I0
tp1208
I70874
s(I7
I7
I1
I92
I20161114
I0
tp1209
I72088
s(I7
I5
I2
I47
I20161103
I0
tp1210
I70861
s(I7
I5
I2
I30
I20161103
I0
tp1211
I70844
s(I7
I5
I5
I84
I20161103
I0
tp1212
I71382
s(I7
I5
I2
I9
I20161103
I0
tp1213
I70823
s(I7
I6
I7
I18
I20161107
I0
tp1214
I70612
s(I7
I5
I5
I37
I20161103
I0
tp1215
I71335
s(I7
I6
I5
I57
I20161107
I0
tp1216
I70454
s(I7
I6
I6
I3
I20161107
I0
tp1217
I70499
s(I7
I6
I4
I40
I20161107
I0
tp1218
I70337
s(I7
I6
I5
I66
I20161107
I0
tp1219
I70463
s(I7
I7
I5
I3
I20161114
I0
tp1220
I71576
s(I7
I7
I3
I35
I20161114
I0
tp1221
I72228
s(I7
I7
I7
I14
I20161114
I0
tp1222
I71790
s(I7
I7
I5
I86
I20161114
I0
tp1223
I71659
s(I7
I7
I3
I44
I20161114
I0
tp1224
I72237
s(I7
I5
I1
I109
I20161103
I0
tp1225
I70802
s(I7
I6
I6
I56
I20161107
I0
tp1226
I70552
s(I7
I6
I1
I53
I20161107
I0
tp1227
I70052
s(I7
I6
I7
I94
I20161107
I0
tp1228
I70688
s(I7
I6
I2
I85
I20161107
I0
tp1229
I70182
s(I7
I7
I7
I37
I20161114
I0
tp1230
I71813
s(I7
I5
I1
I106
I20161103
I0
tp1231
I70799
s(I7
I7
I3
I59
I20161114
I0
tp1232
I72252
s(I7
I6
I2
I52
I20161107
I0
tp1233
I70149
s(I7
I7
I5
I81
I20161114
I0
tp1234
I71654
s(I7
I7
I1
I96
I20161114
I0
tp1235
I72092
s(I7
I7
I2
I28
I20161114
I0
tp1236
I72122
s(I7
I5
I6
I7
I20161103
I0
tp1237
I71424
s(I7
I5
I6
I44
I20161103
I0
tp1238
I71461
s(I7
I5
I6
I22
I20161103
I0
tp1239
I71439
s(I7
I6
I3
I19
I20161107
I0
tp1240
I70215
s(I7
I7
I2
I58
I20161114
I0
tp1241
I72152
s(I7
I6
I4
I39
I20161107
I0
tp1242
I70336
s(I7
I7
I4
I31
I20161114
I0
tp1243
I71503
s(I7
I6
I3
I85
I20161107
I0
tp1244
I70281
s(I7
I5
I6
I14
I20161103
I0
tp1245
I71431
s(I7
I6
I5
I5
I20161107
I0
tp1246
I70402
s(I7
I7
I1
I29
I20161114
I0
tp1247
I72025
s(I7
I5
I6
I28
I20161103
I0
tp1248
I71445
s(I7
I6
I4
I6
I20161107
I0
tp1249
I70303
s(I7
I6
I2
I51
I20161107
I0
tp1250
I70148
s(I7
I5
I4
I59
I20161103
I1
tp1251
I71237
s(I7
I6
I3
I20
I20161107
I0
tp1252
I70216
s(I7
I5
I4
I52
I20161103
I0
tp1253
I71164
s(I7
I6
I7
I47
I20161107
I0
tp1254
I70641
s(I7
I7
I3
I64
I20161114
I0
tp1255
I72257
s(I7
I5
I4
I43
I20161103
I0
tp1256
I71155
s(I7
I7
I1
I75
I20161114
I0
tp1257
I72071
s(I7
I5
I4
I26
I20161103
I0
tp1258
I71138
s(I7
I6
I5
I23
I20161107
I0
tp1259
I70420
s(I7
I5
I4
I51
I20161103
I0
tp1260
I71163
s(I7
I6
I6
I59
I20161107
I0
tp1261
I70555
s(I7
I6
I4
I80
I20161107
I0
tp1262
I70377
s(I7
I5
I4
I3
I20161103
I0
tp1263
I71115
s(I7
I6
I5
I90
I20161107
I0
tp1264
I70487
s(I7
I6
I5
I28
I20161107
I0
tp1265
I70425
s(I7
I5
I2
I93
I20161103
I0
tp1266
I70907
s(I7
I5
I2
I76
I20161103
I0
tp1267
I70890
s(I7
I7
I3
I71
I20161114
I0
tp1268
I72264
s(I7
I6
I7
I16
I20161107
I0
tp1269
I70610
s(I7
I5
I2
I63
I20161103
I0
tp1270
I70877
s(I7
I5
I7
I18
I20161103
I0
tp1271
I71894
s(I7
I5
I2
I46
I20161103
I0
tp1272
I70860
s(I7
I5
I2
I28
I20161103
I0
tp1273
I70842
s(I7
I5
I2
I15
I20161103
I0
tp1274
I70829
s(I7
I7
I3
I18
I20161114
I0
tp1275
I72211
s(I7
I5
I2
I39
I20161103
I0
tp1276
I70853
s(I7
I6
I1
I71
I20161107
I0
tp1277
I70070
s(I7
I5
I5
I22
I20161103
I0
tp1278
I71320
s(I7
I7
I7
I100
I20161114
I0
tp1279
I71876
s(I7
I6
I1
I6
I20161107
I0
tp1280
I70005
s(I7
I7
I2
I72
I20161114
I0
tp1281
I72166
s(I7
I5
I3
I42
I20161103
I1
tp1282
I71034
s(I7
I5
I7
I64
I20161103
I0
tp1283
I71940
s(I7
I6
I3
I33
I20161107
I0
tp1284
I70229
s(I7
I5
I1
I87
I20161103
I0
tp1285
I70780
s(I7
I5
I7
I107
I20161103
I0
tp1286
I71983
s(I7
I7
I7
I76
I20161114
I0
tp1287
I71852
s(I7
I5
I1
I100
I20161103
I0
tp1288
I70793
s(I7
I6
I4
I4
I20161107
I0
tp1289
I70301
s(I7
I6
I2
I53
I20161107
I0
tp1290
I70150
s(I7
I5
I3
I26
I20161103
I0
tp1291
I70961
s(I7
I5
I7
I91
I20161103
I0
tp1292
I71967
s(I7
I6
I2
I94
I20161107
I0
tp1293
I70191
s(I7
I6
I2
I20
I20161107
I0
tp1294
I70117
s(I7
I6
I3
I58
I20161107
I0
tp1295
I70254
s(I7
I6
I1
I81
I20161107
I0
tp1296
I70080
s(I7
I7
I5
I73
I20161114
I0
tp1297
I71646
s(I7
I5
I3
I5
I20161103
I0
tp1298
I70940
s(I7
I7
I1
I93
I20161114
I0
tp1299
I72089
s(I7
I6
I7
I76
I20161107
I0
tp1300
I70670
s(I7
I7
I2
I60
I20161114
I0
tp1301
I72154
s(I7
I7
I1
I12
I20161114
I0
tp1302
I72008
s(I7
I5
I6
I12
I20161103
I0
tp1303
I71429
s(I7
I7
I2
I20
I20161114
I0
tp1304
I72114
s(I7
I6
I4
I7
I20161107
I0
tp1305
I70304
s(I7
I6
I3
I79
I20161107
I0
tp1306
I70275
s(I7
I6
I6
I36
I20161107
I0
tp1307
I70532
s(I7
I6
I4
I77
I20161107
I0
tp1308
I70374
s(I7
I5
I5
I118
I20161103
I0
tp1309
I71416
s(I7
I5
I5
I71
I20161103
I0
tp1310
I71369
s(I7
I6
I4
I82
I20161107
I0
tp1311
I70379
s(I7
I7
I5
I53
I20161114
I0
tp1312
I71626
s(I7
I7
I2
I13
I20161114
I0
tp1313
I72107
s(I7
I7
I3
I4
I20161114
I0
tp1314
I72197
s(I7
I7
I3
I90
I20161114
I0
tp1315
I72283
s(I7
I7
I5
I72
I20161114
I0
tp1316
I71645
s(I7
I7
I3
I28
I20161114
I0
tp1317
I72221
s(I7
I7
I1
I23
I20161114
I0
tp1318
I72019
s(I7
I6
I6
I27
I20161107
I0
tp1319
I70523
s(I7
I6
I1
I18
I20161107
I0
tp1320
I70017
s(I7
I7
I7
I3
I20161114
I0
tp1321
I71779
s(I7
I5
I3
I107
I20161103
I0
tp1322
I71099
s(I7
I6
I2
I23
I20161107
I0
tp1323
I70120
s(I7
I6
I5
I58
I20161107
I0
tp1324
I70455
s(I7
I7
I6
I95
I20161114
I0
tp1325
I71770
s(I7
I7
I3
I89
I20161114
I0
tp1326
I72282
s(I7
I7
I6
I55
I20161114
I0
tp1327
I71730
s(I7
I7
I3
I19
I20161114
I0
tp1328
I72212
s(I7
I7
I3
I49
I20161114
I0
tp1329
I72242
s(I7
I7
I4
I59
I20161114
I0
tp1330
I71531
s(I7
I5
I3
I43
I20161103
I1
tp1331
I71035
s(I7
I5
I6
I32
I20161103
I0
tp1332
I71449
s(I7
I6
I2
I92
I20161107
I0
tp1333
I70189
s(I7
I6
I1
I39
I20161107
I0
tp1334
I70038
s(I7
I6
I2
I67
I20161107
I0
tp1335
I70164
s(I7
I5
I2
I11
I20161103
I0
tp1336
I70825
s(I7
I5
I3
I40
I20161103
I1
tp1337
I71032
s(I7
I5
I4
I81
I20161103
I0
tp1338
I71259
s(I7
I5
I4
I64
I20161103
I0
tp1339
I71176
s(I7
I5
I7
I110
I20161103
I0
tp1340
I71986
s(I7
I5
I3
I10
I20161103
I1
tp1341
I71002
s(I7
I6
I3
I1
I20161107
I0
tp1342
I70197
s(I7
I5
I7
I65
I20161103
I0
tp1343
I71941
s(I7
I7
I2
I85
I20161114
I0
tp1344
I72179
s(I7
I5
I4
I48
I20161103
I1
tp1345
I71226
s(I7
I6
I4
I9
I20161107
I0
tp1346
I70306
s(I7
I6
I2
I62
I20161107
I0
tp1347
I70159
s(I7
I6
I3
I92
I20161107
I0
tp1348
I70288
s(I7
I5
I2
I89
I20161103
I0
tp1349
I70903
s(I7
I5
I2
I113
I20161103
I0
tp1350
I70927
s(I7
I6
I1
I37
I20161107
I0
tp1351
I70036
s(I7
I7
I3
I7
I20161114
I0
tp1352
I72200
s(I7
I6
I7
I44
I20161107
I0
tp1353
I70638
s(I7
I5
I5
I102
I20161103
I0
tp1354
I71400
s(I7
I7
I6
I19
I20161114
I0
tp1355
I71694
s(I7
I6
I1
I36
I20161107
I0
tp1356
I70035
s(I7
I6
I6
I62
I20161107
I0
tp1357
I70558
s(I7
I6
I4
I83
I20161107
I0
tp1358
I70380
s(I7
I7
I6
I48
I20161114
I0
tp1359
I71723
s(I7
I6
I4
I50
I20161107
I0
tp1360
I70347
s(I7
I7
I5
I59
I20161114
I0
tp1361
I71632
s(I7
I6
I5
I84
I20161107
I0
tp1362
I70481
s(I7
I7
I5
I83
I20161114
I0
tp1363
I71656
s(I7
I7
I5
I21
I20161114
I0
tp1364
I71594
s(I7
I7
I3
I30
I20161114
I0
tp1365
I72223
s(I7
I5
I4
I31
I20161103
I1
tp1366
I71209
s(I7
I7
I2
I32
I20161114
I0
tp1367
I72126
s(I7
I7
I1
I55
I20161114
I0
tp1368
I72051
s(I7
I5
I3
I105
I20161103
I0
tp1369
I71097
s(I7
I6
I1
I25
I20161107
I0
tp1370
I70024
s(I7
I5
I1
I91
I20161103
I0
tp1371
I70784
s(I7
I6
I2
I49
I20161107
I0
tp1372
I70146
s(I7
I7
I4
I33
I20161114
I0
tp1373
I71505
s(I7
I6
I1
I95
I20161107
I0
tp1374
I70094
s(I7
I6
I3
I27
I20161107
I0
tp1375
I70223
s(I7
I5
I1
I67
I20161103
I0
tp1376
I70760
s(I7
I7
I7
I11
I20161114
I0
tp1377
I71787
s(I7
I6
I1
I72
I20161107
I0
tp1378
I70071
s(I7
I7
I4
I72
I20161114
I0
tp1379
I71544
s(I7
I5
I3
I87
I20161103
I0
tp1380
I71079
s(I7
I5
I7
I26
I20161103
I0
tp1381
I71902
s(I7
I6
I6
I9
I20161107
I0
tp1382
I70505
s(I7
I7
I6
I87
I20161114
I0
tp1383
I71762
s(I7
I7
I3
I81
I20161114
I0
tp1384
I72274
s(I7
I6
I7
I14
I20161107
I0
tp1385
I70608
s(I7
I5
I6
I46
I20161103
I0
tp1386
I71463
s(I7
I6
I5
I37
I20161107
I0
tp1387
I70434
s(I7
I7
I1
I74
I20161114
I0
tp1388
I72070
s(I7
I5
I6
I49
I20161103
I0
tp1389
I71466
s(I7
I7
I7
I93
I20161114
I0
tp1390
I71869
s(I7
I7
I4
I67
I20161114
I0
tp1391
I71539
s(I7
I6
I3
I9
I20161107
I0
tp1392
I70205
s(I7
I5
I6
I41
I20161103
I0
tp1393
I71458
s(I7
I6
I4
I49
I20161107
I0
tp1394
I70346
s(I7
I6
I2
I70
I20161107
I0
tp1395
I70167
s(I7
I6
I3
I38
I20161107
I0
tp1396
I70234
s(I7
I6
I1
I77
I20161107
I0
tp1397
I70076
s(I7
I5
I3
I47
I20161103
I1
tp1398
I71039
s(I7
I7
I5
I56
I20161114
I0
tp1399
I71629
s(I7
I5
I3
I1
I20161103
I1
tp1400
I70993
s(I7
I5
I4
I114
I20161103
I0
tp1401
I71292
s(I7
I7
I2
I12
I20161114
I0
tp1402
I72106
s(I7
I7
I3
I69
I20161114
I0
tp1403
I72262
s(I7
I5
I4
I97
I20161103
I0
tp1404
I71275
s(I7
I7
I3
I56
I20161114
I0
tp1405
I72249
s(I7
I5
I4
I83
I20161103
I0
tp1406
I71261
s(I7
I5
I5
I112
I20161103
I0
tp1407
I71410
s(I7
I5
I4
I66
I20161103
I0
tp1408
I71178
s(I7
I6
I7
I69
I20161107
I0
tp1409
I70663
s(I7
I5
I4
I49
I20161103
I0
tp1410
I71161
s(I7
I7
I1
I85
I20161114
I0
tp1411
I72081
s(I7
I5
I4
I32
I20161103
I0
tp1412
I71144
s(I7
I7
I5
I57
I20161114
I0
tp1413
I71630
s(I7
I7
I2
I17
I20161114
I0
tp1414
I72111
s(I7
I5
I3
I14
I20161103
I1
tp1415
I71006
s(I7
I6
I2
I98
I20161107
I0
tp1416
I70195
s(I7
I5
I2
I119
I20161103
I0
tp1417
I70933
s(I7
I5
I2
I102
I20161103
I0
tp1418
I70916
s(I7
I5
I7
I28
I20161103
I0
tp1419
I71904
s(I7
I7
I1
I15
I20161114
I0
tp1420
I72011
s(I7
I5
I2
I81
I20161103
I0
tp1421
I70895
s(I7
I5
I7
I7
I20161103
I0
tp1422
I71883
s(I7
I7
I7
I7
I20161114
I0
tp1423
I71783
s(I7
I5
I7
I16
I20161103
I0
tp1424
I71892
s(I7
I6
I2
I11
I20161107
I0
tp1425
I70108
s(I7
I6
I1
I74
I20161107
I0
tp1426
I70073
s(I7
I6
I1
I4
I20161107
I0
tp1427
I70003
s(I7
I7
I2
I97
I20161114
I0
tp1428
I72191
s(I7
I6
I1
I43
I20161107
I0
tp1429
I70042
s(I7
I6
I2
I18
I20161107
I0
tp1430
I70115
s(I7
I7
I5
I51
I20161114
I0
tp1431
I71624
s(I7
I5
I5
I12
I20161103
I0
tp1432
I71310
s(I7
I5
I5
I82
I20161103
I0
tp1433
I71380
s(I7
I6
I6
I63
I20161107
I0
tp1434
I70559
s(I7
I5
I5
I35
I20161103
I0
tp1435
I71333
s(I7
I7
I5
I70
I20161114
I0
tp1436
I71643
s(I7
I5
I5
I48
I20161103
I0
tp1437
I71346
s(I7
I6
I2
I80
I20161107
I0
tp1438
I70177
s(I7
I7
I5
I94
I20161114
I0
tp1439
I71667
s(I7
I5
I1
I34
I20161103
I0
tp1440
I70727
s(I7
I5
I5
I19
I20161103
I0
tp1441
I71317
s(I7
I6
I5
I70
I20161107
I0
tp1442
I70467
s(I7
I7
I7
I26
I20161114
I0
tp1443
I71802
s(I7
I6
I2
I17
I20161107
I0
tp1444
I70114
s(I7
I6
I1
I69
I20161107
I0
tp1445
I70068
s(I7
I6
I4
I46
I20161107
I0
tp1446
I70343
s(I7
I6
I2
I91
I20161107
I0
tp1447
I70188
s(I7
I5
I1
I57
I20161103
I0
tp1448
I70750
s(I7
I5
I3
I109
I20161103
I0
tp1449
I71101
s(I7
I5
I3
I55
I20161103
I0
tp1450
I70990
s(I7
I5
I3
I94
I20161103
I0
tp1451
I71086
s(I7
I5
I3
I79
I20161103
I0
tp1452
I71071
s(I7
I5
I3
I48
I20161103
I0
tp1453
I70983
s(I7
I5
I3
I46
I20161103
I0
tp1454
I70981
s(I7
I6
I7
I40
I20161107
I0
tp1455
I70634
s(I7
I7
I1
I14
I20161114
I0
tp1456
I72010
s(I7
I6
I6
I68
I20161107
I0
tp1457
I70564
s(I7
I5
I3
I31
I20161103
I0
tp1458
I70966
s(I7
I6
I7
I98
I20161107
I0
tp1459
I70692
s(I7
I7
I2
I18
I20161114
I0
tp1460
I72112
s(I7
I7
I7
I25
I20161114
I0
tp1461
I71801
s(I7
I7
I1
I22
I20161114
I0
tp1462
I72018
s(I7
I7
I2
I88
I20161114
I0
tp1463
I72182
s(I7
I7
I7
I1
I20161114
I0
tp1464
I71777
s(I7
I6
I4
I17
I20161107
I0
tp1465
I70314
s(I7
I6
I3
I101
I20161107
I0
tp1466
I70297
s(I7
I5
I3
I15
I20161103
I1
tp1467
I71007
s(I7
I5
I6
I4
I20161103
I0
tp1468
I71421
s(I7
I5
I6
I23
I20161103
I0
tp1469
I71440
s(I7
I7
I6
I1
I20161114
I0
tp1470
I71676
s(I7
I7
I3
I88
I20161114
I0
tp1471
I72281
s(I7
I5
I4
I61
I20161103
I1
tp1472
I71239
s(I7
I7
I1
I77
I20161114
I0
tp1473
I72073
s(I7
I6
I7
I95
I20161107
I0
tp1474
I70689
s(I7
I7
I3
I48
I20161114
I0
tp1475
I72241
s(I7
I7
I2
I98
I20161114
I0
tp1476
I72192
s(I7
I7
I4
I61
I20161114
I0
tp1477
I71533
s(I7
I7
I1
I25
I20161114
I0
tp1478
I72021
s(I7
I5
I4
I7
I20161103
I1
tp1479
I71185
s(I7
I7
I2
I48
I20161114
I0
tp1480
I72142
s(I7
I7
I6
I60
I20161114
I0
tp1481
I71735
s(I7
I5
I4
I28
I20161103
I0
tp1482
I71140
s(I7
I6
I1
I41
I20161107
I0
tp1483
I70040
s(I7
I5
I4
I36
I20161103
I0
tp1484
I71148
s(I7
I5
I4
I5
I20161103
I0
tp1485
I71117
s(I7
I7
I6
I53
I20161114
I0
tp1486
I71728
s(I7
I7
I3
I55
I20161114
I0
tp1487
I72248
s(I7
I7
I6
I45
I20161114
I0
tp1488
I71720
s(I7
I5
I7
I62
I20161103
I0
tp1489
I71938
s(I7
I7
I2
I99
I20161114
I0
tp1490
I72193
s(I7
I6
I3
I7
I20161107
I0
tp1491
I70203
s(I7
I7
I6
I90
I20161114
I0
tp1492
I71765
s(I7
I6
I1
I42
I20161107
I0
tp1493
I70041
s(I7
I5
I2
I36
I20161103
I0
tp1494
I70850
s(I7
I6
I3
I89
I20161107
I0
tp1495
I70285
s(I7
I5
I7
I97
I20161103
I0
tp1496
I71973
s(I7
I6
I1
I11
I20161107
I0
tp1497
I70010
s(I7
I5
I2
I5
I20161103
I0
tp1498
I70819
s(I7
I5
I2
I29
I20161103
I0
tp1499
I70843
s(I7
I5
I2
I12
I20161103
I0
tp1500
I70826
s(I7
I7
I1
I70
I20161114
I0
tp1501
I72066
s(I7
I6
I6
I81
I20161107
I0
tp1502
I70577
s(I7
I5
I5
I50
I20161103
I0
tp1503
I71348
s(I7
I6
I6
I31
I20161107
I0
tp1504
I70527
s(I7
I7
I7
I91
I20161114
I0
tp1505
I71867
s(I7
I7
I7
I81
I20161114
I0
tp1506
I71857
s(I7
I5
I7
I114
I20161103
I0
tp1507
I71990
s(I7
I7
I5
I92
I20161114
I0
tp1508
I71665
s(I7
I6
I5
I35
I20161107
I0
tp1509
I70432
s(I7
I6
I3
I94
I20161107
I0
tp1510
I70290
s(I7
I6
I7
I11
I20161107
I0
tp1511
I70605
s(I7
I6
I5
I38
I20161107
I0
tp1512
I70435
s(I7
I5
I7
I108
I20161103
I0
tp1513
I71984
s(I7
I6
I4
I52
I20161107
I0
tp1514
I70349
s(I7
I6
I2
I69
I20161107
I0
tp1515
I70166
s(I7
I7
I4
I82
I20161114
I0
tp1516
I71554
s(I7
I5
I3
I77
I20161103
I0
tp1517
I71069
s(I7
I6
I7
I73
I20161107
I0
tp1518
I70667
s(I7
I5
I3
I62
I20161103
I0
tp1519
I71054
s(I7
I7
I1
I81
I20161114
I0
tp1520
I72077
s(I7
I6
I7
I8
I20161107
I0
tp1521
I70602
s(I7
I6
I6
I94
I20161107
I0
tp1522
I70590
s(I7
I6
I7
I66
I20161107
I0
tp1523
I70660
s(I7
I7
I7
I33
I20161114
I0
tp1524
I71809
s(I7
I5
I6
I2
I20161103
I0
tp1525
I71419
s(I7
I5
I6
I21
I20161103
I0
tp1526
I71438
s(I7
I7
I7
I20
I20161114
I0
tp1527
I71796
s(I7
I5
I5
I65
I20161103
I0
tp1528
I71363
s(I7
I5
I4
I29
I20161103
I1
tp1529
I71207
s(I7
I7
I2
I24
I20161114
I0
tp1530
I72118
s(I7
I6
I4
I3
I20161107
I0
tp1531
I70300
s(I7
I5
I4
I37
I20161103
I1
tp1532
I71215
s(I7
I6
I1
I46
I20161107
I0
tp1533
I70045
s(I7
I7
I3
I66
I20161114
I0
tp1534
I72259
s(I7
I7
I2
I54
I20161114
I0
tp1535
I72148
s(I7
I7
I1
I91
I20161114
I0
tp1536
I72087
s(I7
I5
I1
I84
I20161103
I0
tp1537
I70777
s(I7
I5
I4
I38
I20161103
I0
tp1538
I71150
s(I7
I5
I1
I13
I20161103
I0
tp1539
I70706
s(I7
I5
I4
I21
I20161103
I0
tp1540
I71133
s(I7
I5
I4
I4
I20161103
I0
tp1541
I71116
s(I7
I6
I1
I44
I20161107
I0
tp1542
I70043
s(I7
I5
I1
I44
I20161103
I0
tp1543
I70737
s(I7
I7
I3
I38
I20161114
I0
tp1544
I72231
s(I7
I5
I1
I61
I20161103
I0
tp1545
I70754
s(I7
I7
I1
I82
I20161114
I0
tp1546
I72078
s(I7
I5
I3
I97
I20161103
I0
tp1547
I71089
s(I7
I7
I6
I47
I20161114
I0
tp1548
I71722
s(I7
I7
I3
I68
I20161114
I0
tp1549
I72261
s(I7
I6
I6
I39
I20161107
I0
tp1550
I70535
s(I7
I7
I6
I7
I20161114
I0
tp1551
I71682
s(I7
I6
I7
I67
I20161107
I0
tp1552
I70661
s(I7
I7
I6
I77
I20161114
I0
tp1553
I71752
s(I7
I6
I6
I50
I20161107
I0
tp1554
I70546
s(I7
I6
I4
I87
I20161107
I0
tp1555
I70384
s(I7
I6
I2
I95
I20161107
I0
tp1556
I70192
s(I7
I5
I2
I45
I20161103
I0
tp1557
I70859
s(I7
I7
I4
I80
I20161114
I0
tp1558
I71552
s(I7
I5
I3
I33
I20161103
I1
tp1559
I71025
s(I7
I7
I7
I69
I20161114
I0
tp1560
I71845
s(I7
I5
I3
I57
I20161103
I1
tp1561
I71049
s(I7
I6
I6
I49
I20161107
I0
tp1562
I70545
s(I7
I7
I1
I3
I20161114
I0
tp1563
I71999
s(I7
I5
I4
I117
I20161103
I0
tp1564
I71295
s(I7
I7
I6
I67
I20161114
I0
tp1565
I71742
s(I7
I6
I5
I29
I20161107
I0
tp1566
I70426
s(I7
I5
I3
I12
I20161103
I1
tp1567
I71004
s(I7
I6
I3
I44
I20161107
I0
tp1568
I70240
s(I7
I5
I7
I74
I20161103
I0
tp1569
I71950
s(I7
I7
I5
I64
I20161114
I0
tp1570
I71637
s(I7
I6
I1
I56
I20161107
I0
tp1571
I70055
s(I7
I5
I7
I88
I20161103
I0
tp1572
I71964
s(I7
I6
I4
I53
I20161107
I0
tp1573
I70350
s(I7
I5
I7
I41
I20161103
I0
tp1574
I71917
s(I7
I6
I7
I92
I20161107
I0
tp1575
I70686
s(I7
I5
I7
I58
I20161103
I0
tp1576
I71934
s(I7
I5
I3
I2
I20161103
I0
tp1577
I70937
s(I7
I5
I5
I96
I20161103
I0
tp1578
I71394
s(I7
I6
I5
I30
I20161107
I0
tp1579
I70427
s(I7
I6
I7
I45
I20161107
I0
tp1580
I70639
s(I7
I6
I5
I68
I20161107
I0
tp1581
I70465
s(I7
I5
I5
I105
I20161103
I0
tp1582
I71403
s(I7
I7
I6
I56
I20161114
I0
tp1583
I71731
s(I7
I7
I7
I28
I20161114
I0
tp1584
I71804
s(I7
I5
I4
I53
I20161103
I1
tp1585
I71231
s(I7
I5
I5
I33
I20161103
I0
tp1586
I71331
s(I7
I5
I5
I72
I20161103
I0
tp1587
I71370
s(I7
I7
I2
I56
I20161114
I0
tp1588
I72150
s(I7
I5
I5
I89
I20161103
I0
tp1589
I71387
s(I7
I5
I5
I38
I20161103
I0
tp1590
I71336
s(I7
I5
I1
I15
I20161103
I0
tp1591
I70708
s(I7
I5
I1
I28
I20161103
I0
tp1592
I70721
s(I7
I5
I3
I113
I20161103
I0
tp1593
I71105
s(I7
I5
I1
I4
I20161103
I0
tp1594
I70697
s(I7
I7
I3
I70
I20161114
I0
tp1595
I72263
s(I7
I5
I3
I80
I20161103
I0
tp1596
I71072
s(I7
I5
I1
I39
I20161103
I0
tp1597
I70732
s(I7
I5
I3
I65
I20161103
I0
tp1598
I71057
s(I7
I7
I3
I94
I20161114
I0
tp1599
I72287
s(I7
I5
I3
I104
I20161103
I0
tp1600
I71096
s(I7
I6
I6
I57
I20161107
I0
tp1601
I70553
s(I7
I5
I3
I89
I20161103
I0
tp1602
I71081
s(I7
I7
I6
I39
I20161114
I0
tp1603
I71714
s(I7
I6
I7
I35
I20161107
I0
tp1604
I70629
s(I7
I7
I5
I39
I20161114
I0
tp1605
I71612
s(I7
I7
I1
I66
I20161114
I0
tp1606
I72062
s(I7
I7
I4
I54
I20161114
I0
tp1607
I71526
s(I7
I7
I5
I47
I20161114
I0
tp1608
I71620
s(I7
I5
I6
I6
I20161103
I0
tp1609
I71423
s(I7
I5
I3
I25
I20161103
I1
tp1610
I71017
s(I7
I7
I3
I93
I20161114
I0
tp1611
I72286
s(I7
I6
I7
I70
I20161107
I0
tp1612
I70664
s(I7
I7
I2
I90
I20161114
I0
tp1613
I72184
s(I7
I7
I2
I8
I20161114
I0
tp1614
I72102
s(I7
I6
I2
I97
I20161107
I0
tp1615
I70194
s(I7
I7
I6
I42
I20161114
I0
tp1616
I71717
s(I7
I6
I1
I13
I20161107
I0
tp1617
I70012
s(I7
I5
I4
I42
I20161103
I0
tp1618
I71154
s(I7
I6
I1
I83
I20161107
I0
tp1619
I70082
s(I7
I7
I5
I68
I20161114
I0
tp1620
I71641
s(I7
I5
I4
I55
I20161103
I0
tp1621
I71167
s(I7
I6
I4
I31
I20161107
I0
tp1622
I70328
s(I7
I5
I3
I34
I20161103
I1
tp1623
I71026
s(I7
I5
I7
I72
I20161103
I0
tp1624
I71948
s(I7
I6
I6
I29
I20161107
I0
tp1625
I70525
s(I7
I6
I5
I97
I20161107
I0
tp1626
I70494
s(I7
I5
I7
I89
I20161103
I0
tp1627
I71965
s(I7
I7
I5
I32
I20161114
I0
tp1628
I71605
s(I7
I7
I7
I80
I20161114
I0
tp1629
I71856
s(I7
I6
I4
I91
I20161107
I0
tp1630
I70388
s(I7
I5
I7
I56
I20161103
I0
tp1631
I71932
s(I7
I6
I4
I21
I20161107
I0
tp1632
I70318
s(I7
I6
I3
I61
I20161107
I0
tp1633
I70257
s(I7
I6
I1
I84
I20161107
I0
tp1634
I70083
s(I7
I5
I4
I40
I20161103
I1
tp1635
I71218
s(I7
I5
I2
I62
I20161103
I0
tp1636
I70876
s(I7
I7
I6
I3
I20161114
I0
tp1637
I71678
s(I7
I5
I2
I96
I20161103
I0
tp1638
I70910
s(I7
I7
I1
I59
I20161114
I0
tp1639
I72055
s(I7
I5
I2
I83
I20161103
I0
tp1640
I70897
s(I7
I5
I4
I14
I20161103
I1
tp1641
I71192
s(I7
I6
I6
I35
I20161107
I0
tp1642
I70531
s(I7
I5
I2
I66
I20161103
I0
tp1643
I70880
s(I7
I6
I7
I71
I20161107
I0
tp1644
I70665
s(I7
I6
I7
I13
I20161107
I0
tp1645
I70607
s(I7
I6
I5
I98
I20161107
I0
tp1646
I70495
s(I7
I7
I6
I11
I20161114
I0
tp1647
I71686
s(I7
I5
I5
I73
I20161103
I0
tp1648
I71371
s(I7
I6
I6
I74
I20161107
I0
tp1649
I70570
s(I7
I5
I2
I35
I20161103
I0
tp1650
I70849
s(I7
I5
I5
I91
I20161103
I0
tp1651
I71389
s(I7
I6
I5
I67
I20161107
I0
tp1652
I70464
s(I7
I5
I5
I40
I20161103
I0
tp1653
I71338
s(I7
I7
I7
I62
I20161114
I0
tp1654
I71838
s(I7
I7
I7
I71
I20161114
I0
tp1655
I71847
s(I7
I6
I7
I64
I20161107
I0
tp1656
I70658
s(I7
I7
I5
I45
I20161114
I0
tp1657
I71618
s(I7
I5
I5
I10
I20161103
I0
tp1658
I71308
s(I7
I7
I2
I5
I20161114
I0
tp1659
I72099
s(I7
I5
I4
I103
I20161103
I0
tp1660
I71281
s(I7
I5
I4
I9
I20161103
I1
tp1661
I71187
s(I7
I7
I2
I29
I20161114
I0
tp1662
I72123
s(I7
I7
I7
I18
I20161114
I0
tp1663
I71794
s(I7
I5
I3
I120
I20161103
I0
tp1664
I71112
s(I7
I5
I3
I72
I20161103
I0
tp1665
I71064
s(I7
I7
I5
I6
I20161114
I0
tp1666
I71579
s(I7
I5
I1
I80
I20161103
I0
tp1667
I70773
s(I7
I5
I1
I97
I20161103
I0
tp1668
I70790
s(I7
I7
I1
I64
I20161114
I0
tp1669
I72060
s(I7
I5
I1
I118
I20161103
I0
tp1670
I70811
s(I7
I5
I3
I54
I20161103
I0
tp1671
I70989
s(I7
I7
I6
I74
I20161114
I0
tp1672
I71749
s(I7
I5
I3
I39
I20161103
I0
tp1673
I70974
s(I7
I7
I1
I98
I20161114
I0
tp1674
I72094
s(I7
I7
I2
I26
I20161114
I0
tp1675
I72120
s(I7
I5
I3
I21
I20161103
I0
tp1676
I70956
s(I7
I5
I3
I6
I20161103
I0
tp1677
I70941
s(I7
I5
I6
I15
I20161103
I0
tp1678
I71432
s(I7
I7
I5
I52
I20161114
I0
tp1679
I71625
s(I7
I5
I6
I30
I20161103
I0
tp1680
I71447
s(I7
I7
I4
I43
I20161114
I0
tp1681
I71515
s(I7
I6
I5
I47
I20161107
I0
tp1682
I70444
s(I7
I7
I3
I32
I20161114
I0
tp1683
I72225
s(I7
I6
I2
I76
I20161107
I0
tp1684
I70173
s(I7
I6
I4
I56
I20161107
I0
tp1685
I70353
s(I7
I6
I2
I65
I20161107
I0
tp1686
I70162
s(I7
I5
I5
I103
I20161103
I0
tp1687
I71401
s(I7
I5
I4
I35
I20161103
I0
tp1688
I71147
s(I7
I5
I4
I89
I20161103
I0
tp1689
I71267
s(I7
I7
I4
I44
I20161114
I0
tp1690
I71516
s(I7
I5
I4
I72
I20161103
I0
tp1691
I71250
s(I7
I5
I1
I82
I20161103
I0
tp1692
I70775
s(I7
I6
I5
I65
I20161107
I0
tp1693
I70462
s(I7
I6
I6
I22
I20161107
I0
tp1694
I70518
s(I7
I6
I4
I59
I20161107
I0
tp1695
I70356
s(I7
I6
I6
I72
I20161107
I0
tp1696
I70568
s(I7
I6
I4
I97
I20161107
I0
tp1697
I70394
s(I7
I7
I7
I21
I20161114
I0
tp1698
I71797
s(I7
I7
I2
I83
I20161114
I0
tp1699
I72177
s(I7
I5
I1
I99
I20161103
I0
tp1700
I70792
s(I7
I5
I4
I8
I20161103
I1
tp1701
I71186
s(I7
I5
I7
I4
I20161103
I0
tp1702
I71880
s(I7
I5
I2
I64
I20161103
I0
tp1703
I70878
s(I7
I5
I7
I21
I20161103
I0
tp1704
I71897
s(I7
I6
I4
I10
I20161107
I0
tp1705
I70307
s(I7
I5
I2
I88
I20161103
I0
tp1706
I70902
s(I7
I6
I7
I39
I20161107
I0
tp1707
I70633
s(I7
I6
I7
I97
I20161107
I0
tp1708
I70691
s(I7
I7
I4
I73
I20161114
I0
tp1709
I71545
s(I7
I6
I3
I3
I20161107
I0
tp1710
I70199
s(I7
I6
I6
I79
I20161107
I0
tp1711
I70575
s(I7
I6
I1
I38
I20161107
I0
tp1712
I70037
s(I7
I7
I3
I1
I20161114
I0
tp1713
I72194
s(I7
I5
I5
I29
I20161103
I0
tp1714
I71327
s(I7
I7
I5
I75
I20161114
I0
tp1715
I71648
s(I7
I5
I5
I36
I20161103
I0
tp1716
I71334
s(I7
I7
I2
I31
I20161114
I0
tp1717
I72125
s(I7
I5
I5
I53
I20161103
I0
tp1718
I71351
s(I7
I5
I5
I2
I20161103
I0
tp1719
I71300
s(I7
I7
I7
I50
I20161114
I0
tp1720
I71826
s(I7
I6
I4
I36
I20161107
I0
tp1721
I70333
s(I7
I5
I5
I20
I20161103
I0
tp1722
I71318
s(I7
I7
I6
I27
I20161114
I0
tp1723
I71702
s(I7
I7
I2
I68
I20161114
I0
tp1724
I72162
s(I7
I5
I7
I106
I20161103
I0
tp1725
I71982
s(I7
I7
I5
I4
I20161114
I0
tp1726
I71577
s(I7
I7
I6
I57
I20161114
I0
tp1727
I71732
s(I7
I6
I5
I39
I20161107
I0
tp1728
I70436
s(I7
I5
I3
I38
I20161103
I1
tp1729
I71030
s(I7
I6
I3
I90
I20161107
I0
tp1730
I70286
s(I7
I7
I5
I28
I20161114
I0
tp1731
I71601
s(I7
I6
I4
I96
I20161107
I0
tp1732
I70393
s(I7
I5
I1
I112
I20161103
I0
tp1733
I70805
s(I7
I5
I3
I52
I20161103
I0
tp1734
I70987
s(I7
I7
I2
I11
I20161114
I0
tp1735
I72105
s(I7
I5
I3
I37
I20161103
I0
tp1736
I70972
s(I7
I5
I1
I88
I20161103
I0
tp1737
I70781
s(I7
I5
I3
I22
I20161103
I0
tp1738
I70957
s(I7
I5
I3
I61
I20161103
I0
tp1739
I71053
s(I7
I5
I3
I7
I20161103
I0
tp1740
I70942
s(I7
I6
I6
I2
I20161107
I0
tp1741
I70498
s(I7
I7
I4
I85
I20161114
I0
tp1742
I71557
s(I7
I5
I4
I44
I20161103
I1
tp1743
I71222
s(I7
I5
I3
I13
I20161103
I0
tp1744
I70948
s(I7
I6
I7
I9
I20161107
I0
tp1745
I70603
s(I7
I6
I5
I32
I20161107
I0
tp1746
I70429
s(I7
I7
I4
I70
I20161114
I0
tp1747
I71542
s(I7
I6
I5
I53
I20161107
I0
tp1748
I70450
s(I7
I7
I7
I47
I20161114
I0
tp1749
I71823
s(I7
I7
I6
I68
I20161114
I0
tp1750
I71743
s(I7
I7
I3
I58
I20161114
I0
tp1751
I72251
s(I7
I5
I1
I10
I20161103
I0
tp1752
I70703
s(I7
I7
I7
I84
I20161114
I0
tp1753
I71860
s(I7
I5
I4
I13
I20161103
I1
tp1754
I71191
s(I7
I7
I1
I80
I20161114
I0
tp1755
I72076
s(I7
I7
I4
I95
I20161114
I0
tp1756
I71567
s(I7
I6
I3
I21
I20161107
I0
tp1757
I70217
s(I7
I6
I1
I60
I20161107
I0
tp1758
I70059
s(I7
I6
I7
I85
I20161107
I0
tp1759
I70679
s(I7
I6
I2
I90
I20161107
I0
tp1760
I70187
s(I7
I7
I4
I52
I20161114
I0
tp1761
I71524
s(I7
I6
I5
I76
I20161107
I0
tp1762
I70473
s(I7
I6
I6
I98
I20161107
I0
tp1763
I70594
s(I7
I7
I3
I15
I20161114
I0
tp1764
I72208
s(I7
I6
I4
I16
I20161107
I0
tp1765
I70313
s(I7
I7
I5
I10
I20161114
I0
tp1766
I71583
s(I7
I6
I4
I86
I20161107
I0
tp1767
I70383
s(I7
I6
I2
I99
I20161107
I0
tp1768
I70196
s(I7
I5
I6
I45
I20161103
I0
tp1769
I71462
s(I7
I6
I2
I9
I20161107
I0
tp1770
I70106
s(I7
I6
I4
I23
I20161107
I0
tp1771
I70320
s(I7
I5
I5
I4
I20161103
I0
tp1772
I71302
s(I7
I6
I6
I48
I20161107
I0
tp1773
I70544
s(I7
I5
I5
I21
I20161103
I0
tp1774
I71319
s(I7
I7
I7
I63
I20161114
I0
tp1775
I71839
s(I7
I5
I4
I110
I20161103
I0
tp1776
I71288
s(I7
I7
I6
I59
I20161114
I0
tp1777
I71734
s(I7
I5
I3
I36
I20161103
I1
tp1778
I71028
s(I7
I5
I4
I93
I20161103
I0
tp1779
I71271
s(I7
I6
I4
I41
I20161107
I0
tp1780
I70338
s(I7
I5
I4
I76
I20161103
I0
tp1781
I71254
s(I7
I6
I5
I77
I20161107
I0
tp1782
I70474
s(I7
I6
I5
I7
I20161107
I0
tp1783
I70404
s(I7
I7
I5
I88
I20161114
I0
tp1784
I71661
s(I7
I6
I6
I43
I20161107
I0
tp1785
I70539
s(I7
I5
I7
I67
I20161103
I0
tp1786
I71943
s(I7
I6
I4
I64
I20161107
I0
tp1787
I70361
s(I7
I7
I2
I43
I20161114
I0
tp1788
I72137
s(I7
I5
I4
I60
I20161103
I1
tp1789
I71238
s(I7
I7
I2
I3
I20161114
I0
tp1790
I72097
s(I7
I5
I3
I29
I20161103
I0
tp1791
I70964
s(I7
I5
I4
I54
I20161103
I1
tp1792
I71232
s(I7
I5
I4
I12
I20161103
I1
tp1793
I71190
s(I7
I7
I3
I41
I20161114
I0
tp1794
I72234
s(I7
I5
I2
I101
I20161103
I0
tp1795
I70915
s(I7
I5
I4
I20
I20161103
I1
tp1796
I71198
s(I7
I7
I6
I16
I20161114
I0
tp1797
I71691
s(I7
I5
I2
I84
I20161103
I0
tp1798
I70898
s(I7
I6
I7
I93
I20161107
I0
tp1799
I70687
s(I7
I5
I5
I110
I20161103
I0
tp1800
I71408
s(I7
I6
I6
I84
I20161107
I0
tp1801
I70580
s(I7
I7
I7
I9
I20161114
I0
tp1802
I71785
s(I7
I7
I7
I38
I20161114
I0
tp1803
I71814
s(I7
I5
I4
I63
I20161103
I1
tp1804
I71241
s(I7
I7
I5
I101
I20161114
I0
tp1805
I71674
s(I7
I7
I5
I9
I20161114
I0
tp1806
I71582
s(I7
I7
I7
I86
I20161114
I0
tp1807
I71862
s(I7
I5
I4
I15
I20161103
I1
tp1808
I71193
s(I7
I5
I5
I32
I20161103
I0
tp1809
I71330
s(I7
I5
I5
I49
I20161103
I0
tp1810
I71347
s(I7
I7
I4
I69
I20161114
I0
tp1811
I71541
s(I7
I6
I3
I15
I20161107
I0
tp1812
I70211
s(I7
I7
I1
I1
I20161114
I0
tp1813
I71997
s(I7
I6
I1
I34
I20161107
I0
tp1814
I70033
s(I7
I5
I1
I38
I20161103
I0
tp1815
I70731
s(I7
I6
I4
I13
I20161107
I0
tp1816
I70310
s(I7
I6
I2
I58
I20161107
I0
tp1817
I70155
s(I7
I6
I3
I80
I20161107
I0
tp1818
I70276
s(I7
I5
I1
I14
I20161103
I0
tp1819
I70707
s(I7
I7
I3
I78
I20161114
I0
tp1820
I72271
s(I7
I5
I1
I31
I20161103
I0
tp1821
I70724
s(I7
I6
I3
I49
I20161107
I0
tp1822
I70245
s(I7
I5
I1
I41
I20161103
I0
tp1823
I70734
s(I7
I5
I1
I62
I20161103
I0
tp1824
I70755
s(I7
I7
I2
I77
I20161114
I0
tp1825
I72171
s(I7
I5
I1
I79
I20161103
I0
tp1826
I70772
s(I7
I7
I1
I42
I20161114
I0
tp1827
I72038
s(I7
I5
I1
I92
I20161103
I0
tp1828
I70785
s(I7
I5
I3
I64
I20161103
I0
tp1829
I71056
s(I7
I7
I3
I47
I20161114
I0
tp1830
I72240
s(I7
I6
I6
I17
I20161107
I0
tp1831
I70513
s(I7
I7
I6
I37
I20161114
I0
tp1832
I71712
s(I7
I6
I5
I59
I20161107
I0
tp1833
I70456
s(I7
I6
I3
I70
I20161107
I0
tp1834
I70266
s(I7
I7
I4
I46
I20161114
I0
tp1835
I71518
s(I7
I6
I4
I54
I20161107
I0
tp1836
I70351
s(I7
I6
I5
I80
I20161107
I0
tp1837
I70477
s(I7
I7
I1
I83
I20161114
I0
tp1838
I72079
s(I7
I7
I7
I2
I20161114
I0
tp1839
I71778
s(I7
I6
I3
I95
I20161107
I0
tp1840
I70291
s(I7
I6
I4
I99
I20161107
I0
tp1841
I70396
s(I7
I5
I3
I27
I20161103
I1
tp1842
I71019
s(I7
I7
I3
I83
I20161114
I0
tp1843
I72276
s(I7
I7
I6
I96
I20161114
I0
tp1844
I71771
s(I7
I7
I6
I58
I20161114
I0
tp1845
I71733
s(I7
I7
I1
I95
I20161114
I0
tp1846
I72091
s(I7
I6
I6
I16
I20161107
I0
tp1847
I70512
s(I7
I6
I1
I29
I20161107
I0
tp1848
I70028
s(I7
I7
I6
I18
I20161114
I0
tp1849
I71693
s(I7
I6
I2
I61
I20161107
I0
tp1850
I70158
s(I7
I5
I4
I78
I20161103
I0
tp1851
I71256
s(I7
I6
I2
I28
I20161107
I0
tp1852
I70125
s(I7
I6
I7
I6
I20161107
I0
tp1853
I70600
s(I7
I6
I5
I45
I20161107
I0
tp1854
I70442
s(I7
I6
I6
I77
I20161107
I0
tp1855
I70573
s(I7
I5
I3
I24
I20161103
I1
tp1856
I71016
s(I7
I5
I7
I39
I20161103
I0
tp1857
I71915
s(I7
I7
I7
I72
I20161114
I0
tp1858
I71848
s(I7
I5
I7
I48
I20161103
I0
tp1859
I71924
s(I7
I5
I7
I79
I20161103
I0
tp1860
I71955
s(I7
I5
I2
I117
I20161103
I0
tp1861
I70931
s(I7
I6
I3
I13
I20161107
I0
tp1862
I70209
s(I7
I5
I2
I107
I20161103
I0
tp1863
I70921
s(I7
I5
I7
I23
I20161103
I0
tp1864
I71899
s(I7
I5
I4
I22
I20161103
I1
tp1865
I71200
s(I7
I6
I1
I67
I20161107
I0
tp1866
I70066
s(I7
I5
I2
I90
I20161103
I0
tp1867
I70904
s(I7
I5
I4
I86
I20161103
I0
tp1868
I71264
s(I7
I5
I7
I63
I20161103
I0
tp1869
I71939
s(I7
I5
I7
I8
I20161103
I0
tp1870
I71884
s(I7
I6
I7
I61
I20161107
I0
tp1871
I70655
s(I7
I6
I2
I50
I20161107
I0
tp1872
I70147
s(I7
I6
I2
I89
I20161107
I0
tp1873
I70186
s(I7
I7
I5
I14
I20161114
I0
tp1874
I71587
s(I7
I5
I5
I67
I20161103
I0
tp1875
I71365
s(I7
I5
I5
I80
I20161103
I0
tp1876
I71378
s(I7
I7
I5
I69
I20161114
I0
tp1877
I71642
s(I7
I5
I5
I34
I20161103
I0
tp1878
I71332
s(I7
I5
I5
I51
I20161103
I0
tp1879
I71349
s(I7
I7
I5
I93
I20161114
I0
tp1880
I71666
s(I7
I5
I5
I43
I20161103
I0
tp1881
I71341
s(I7
I5
I5
I17
I20161103
I0
tp1882
I71315
s(I7
I6
I4
I8
I20161107
I0
tp1883
I70305
s(I7
I5
I1
I8
I20161103
I0
tp1884
I70701
s(I7
I6
I4
I19
I20161107
I0
tp1885
I70316
s(I7
I5
I1
I25
I20161103
I0
tp1886
I70718
s(I7
I6
I4
I89
I20161107
I0
tp1887
I70386
s(I7
I5
I1
I46
I20161103
I0
tp1888
I70739
s(I7
I5
I1
I63
I20161103
I0
tp1889
I70756
s(I7
I5
I3
I111
I20161103
I0
tp1890
I71103
s(I7
I6
I3
I43
I20161107
I0
tp1891
I70239
s(I7
I5
I1
I73
I20161103
I0
tp1892
I70766
s(I7
I7
I2
I39
I20161114
I0
tp1893
I72133
s(I7
I5
I1
I94
I20161103
I0
tp1894
I70787
s(I7
I5
I3
I78
I20161103
I0
tp1895
I71070
s(I7
I5
I3
I63
I20161103
I0
tp1896
I71055
s(I7
I7
I7
I96
I20161114
I0
tp1897
I71872
s(I7
I7
I2
I69
I20161114
I0
tp1898
I72163
s(I7
I5
I3
I32
I20161103
I0
tp1899
I70967
s(I7
I5
I3
I74
I20161103
I0
tp1900
I71066
s(I7
I7
I1
I26
I20161114
I0
tp1901
I72022
s(I7
I6
I5
I27
I20161107
I0
tp1902
I70424
s(I7
I6
I6
I55
I20161107
I0
tp1903
I70551
s(I7
I6
I1
I62
I20161107
I0
tp1904
I70061
s(I7
I6
I4
I92
I20161107
I0
tp1905
I70389
s(I7
I6
I1
I31
I20161107
I0
tp1906
I70030
s(I7
I6
I1
I88
I20161107
I0
tp1907
I70087
s(I7
I6
I5
I95
I20161107
I0
tp1908
I70492
s(I7
I7
I3
I16
I20161114
I0
tp1909
I72209
s(I7
I7
I2
I66
I20161114
I0
tp1910
I72160
s(I7
I5
I6
I1
I20161103
I0
tp1911
I71418
s(I7
I5
I6
I16
I20161103
I0
tp1912
I71433
s(I7
I7
I6
I28
I20161114
I0
tp1913
I71703
s(I7
I7
I3
I75
I20161114
I0
tp1914
I72268
s(I7
I6
I3
I34
I20161107
I0
tp1915
I70230
s(I7
I7
I6
I50
I20161114
I0
tp1916
I71725
s(I7
I6
I2
I29
I20161107
I0
tp1917
I70126
s(I7
I6
I1
I73
I20161107
I0
tp1918
I70072
s(I7
I7
I1
I5
I20161114
I0
tp1919
I72001
s(I7
I6
I2
I6
I20161107
I0
tp1920
I70103
s(I7
I6
I2
I64
I20161107
I0
tp1921
I70161
s(I7
I5
I4
I50
I20161103
I0
tp1922
I71162
s(I7
I7
I7
I74
I20161114
I0
tp1923
I71850
s(I7
I6
I6
I6
I20161107
I0
tp1924
I70502
s(I7
I5
I4
I33
I20161103
I0
tp1925
I71145
s(I7
I6
I7
I36
I20161107
I0
tp1926
I70630
s(I7
I5
I4
I16
I20161103
I0
tp1927
I71128
s(I7
I5
I7
I94
I20161103
I0
tp1928
I71970
s(I7
I5
I4
I7
I20161103
I0
tp1929
I71119
s(I7
I6
I5
I24
I20161107
I0
tp1930
I70421
s(I7
I5
I7
I47
I20161103
I0
tp1931
I71923
s(I7
I6
I3
I39
I20161107
I0
tp1932
I70235
s(I7
I6
I7
I31
I20161107
I0
tp1933
I70625
s(I7
I5
I7
I14
I20161103
I0
tp1934
I71890
s(I7
I6
I4
I58
I20161107
I0
tp1935
I70355
s(I7
I5
I7
I31
I20161103
I0
tp1936
I71907
s(I7
I7
I2
I81
I20161114
I0
tp1937
I72175
s(I7
I5
I2
I41
I20161103
I0
tp1938
I70855
s(I7
I5
I2
I86
I20161103
I0
tp1939
I70900
s(I7
I7
I1
I38
I20161114
I0
tp1940
I72034
s(I7
I5
I7
I46
I20161103
I0
tp1941
I71922
s(I7
I5
I2
I65
I20161103
I0
tp1942
I70879
s(I7
I5
I2
I48
I20161103
I0
tp1943
I70862
s(I7
I7
I3
I73
I20161114
I0
tp1944
I72266
s(I7
I5
I2
I38
I20161103
I0
tp1945
I70852
s(I7
I5
I2
I17
I20161103
I0
tp1946
I70831
s(I7
I6
I7
I43
I20161107
I0
tp1947
I70637
s(I7
I7
I7
I77
I20161114
I0
tp1948
I71853
s(I7
I5
I5
I11
I20161103
I0
tp1949
I71309
s(I7
I7
I4
I88
I20161114
I0
tp1950
I71560
s(I7
I6
I4
I94
I20161107
I0
tp1951
I70391
s(I7
I7
I5
I2
I20161114
I0
tp1952
I71575
s(I7
I7
I3
I33
I20161114
I0
tp1953
I72226
s(I7
I7
I2
I71
I20161114
I0
tp1954
I72165
s(I7
I5
I3
I28
I20161103
I1
tp1955
I71020
s(I7
I7
I2
I1
I20161114
I0
tp1956
I72095
s(I7
I7
I2
I95
I20161114
I0
tp1957
I72189
s(I7
I6
I2
I16
I20161107
I0
tp1958
I70113
s(I7
I5
I1
I98
I20161103
I0
tp1959
I70791
s(I7
I5
I1
I115
I20161103
I0
tp1960
I70808
s(I7
I6
I1
I30
I20161107
I0
tp1961
I70029
s(I7
I6
I1
I5
I20161107
I0
tp1962
I70004
s(I7
I7
I7
I23
I20161114
I0
tp1963
I71799
s(I7
I6
I2
I27
I20161107
I0
tp1964
I70124
s(I7
I6
I1
I90
I20161107
I0
tp1965
I70089
s(I7
I7
I1
I68
I20161114
I0
tp1966
I72064
s(I7
I7
I2
I92
I20161114
I0
tp1967
I72186
s(I7
I6
I6
I37
I20161107
I0
tp1968
I70533
s(I7
I7
I3
I85
I20161114
I0
tp1969
I72278
s(I7
I5
I6
I25
I20161103
I0
tp1970
I71442
s(I7
I5
I4
I65
I20161103
I1
tp1971
I71243
s(I7
I6
I3
I68
I20161107
I0
tp1972
I70264
s(I7
I6
I3
I2
I20161107
I0
tp1973
I70198
s(I7
I7
I1
I37
I20161114
I0
tp1974
I72033
s(I7
I7
I4
I47
I20161114
I0
tp1975
I71519
s(I7
I6
I3
I37
I20161107
I0
tp1976
I70233
s(I7
I6
I1
I76
I20161107
I0
tp1977
I70075
s(I7
I5
I1
I12
I20161103
I0
tp1978
I70705
s(I7
I6
I2
I32
I20161107
I0
tp1979
I70129
s(I7
I5
I1
I29
I20161103
I0
tp1980
I70722
s(I7
I6
I3
I78
I20161107
I0
tp1981
I70274
s(I7
I7
I3
I36
I20161114
I0
tp1982
I72229
s(I7
I5
I4
I18
I20161103
I0
tp1983
I71130
s(I7
I5
I4
I1
I20161103
I0
tp1984
I71113
s(I7
I6
I7
I4
I20161107
I0
tp1985
I70598
s(I7
I6
I6
I82
I20161107
I0
tp1986
I70578
s(I7
I5
I4
I41
I20161103
I0
tp1987
I71153
s(I7
I7
I6
I65
I20161114
I0
tp1988
I71740
s(I7
I6
I7
I89
I20161107
I0
tp1989
I70683
s(I7
I7
I4
I48
I20161114
I0
tp1990
I71520
s(I7
I6
I4
I26
I20161107
I0
tp1991
I70323
s(I7
I7
I4
I24
I20161114
I0
tp1992
I71496
s(I7
I5
I2
I71
I20161103
I0
tp1993
I70885
s(I7
I5
I2
I54
I20161103
I0
tp1994
I70868
s(I7
I7
I2
I73
I20161114
I0
tp1995
I72167
s(I7
I5
I2
I33
I20161103
I0
tp1996
I70847
s(I7
I5
I2
I6
I20161103
I0
tp1997
I70820
s(I7
I5
I3
I53
I20161103
I1
tp1998
I71045
s(I7
I7
I6
I94
I20161114
I0
tp1999
I71769
s(I7
I7
I1
I78
I20161114
I0
tp2000
I72074
s(I7
I6
I1
I7
I20161107
I0
tp2001
I70006
s(I7
I6
I1
I48
I20161107
I0
tp2002
I70047
s(I7
I7
I2
I70
I20161114
I0
tp2003
I72164
s(I7
I7
I6
I35
I20161114
I0
tp2004
I71710
s(I7
I5
I3
I44
I20161103
I1
tp2005
I71036
s(I7
I5
I3
I50
I20161103
I1
tp2006
I71042
s(I7
I7
I7
I89
I20161114
I0
tp2007
I71865
s(I7
I7
I2
I27
I20161114
I0
tp2008
I72121
s(I7
I5
I7
I73
I20161103
I0
tp2009
I71949
s(I7
I7
I4
I71
I20161114
I0
tp2010
I71543
s(I7
I5
I3
I20
I20161103
I1
tp2011
I71012
s(I7
I5
I7
I90
I20161103
I0
tp2012
I71966
s(I7
I7
I5
I90
I20161114
I0
tp2013
I71663
s(I7
I6
I3
I30
I20161107
I0
tp2014
I70226
s(I7
I6
I2
I68
I20161107
I0
tp2015
I70165
s(I7
I5
I3
I19
I20161103
I0
tp2016
I70954
s(I7
I5
I3
I4
I20161103
I0
tp2017
I70939
s(I7
I6
I2
I5
I20161107
I0
tp2018
I70102
s(I7
I5
I4
I30
I20161103
I1
tp2019
I71208
s(I7
I6
I2
I79
I20161107
I0
tp2020
I70176
s(I7
I5
I2
I82
I20161103
I0
tp2021
I70896
s(I7
I7
I7
I94
I20161114
I0
tp2022
I71870
s(I7
I6
I7
I12
I20161107
I0
tp2023
I70606
s(I7
I7
I6
I22
I20161114
I0
tp2024
I71697
s(I7
I6
I6
I5
I20161107
I0
tp2025
I70501
s(I7
I5
I5
I108
I20161103
I0
tp2026
I71406
s(I7
I7
I5
I17
I20161114
I0
tp2027
I71590
s(I7
I6
I3
I36
I20161107
I0
tp2028
I70232
s(I7
I5
I5
I92
I20161103
I0
tp2029
I71390
s(I7
I6
I6
I65
I20161107
I0
tp2030
I70561
s(I7
I7
I7
I97
I20161114
I0
tp2031
I71873
s(I7
I6
I3
I5
I20161107
I0
tp2032
I70201
s(I7
I7
I5
I76
I20161114
I0
tp2033
I71649
s(I7
I6
I4
I61
I20161107
I0
tp2034
I70358
s(I7
I6
I2
I74
I20161107
I0
tp2035
I70171
s(I7
I5
I1
I7
I20161103
I0
tp2036
I70700
s(I7
I6
I3
I96
I20161107
I0
tp2037
I70292
s(I7
I7
I5
I62
I20161114
I0
tp2038
I71635
s(I7
I5
I1
I20
I20161103
I0
tp2039
I70713
s(I7
I7
I3
I62
I20161114
I0
tp2040
I72255
s(I7
I7
I6
I98
I20161114
I0
tp2041
I71773
s(I7
I6
I7
I88
I20161107
I0
tp2042
I70682
s(I7
I5
I3
I115
I20161103
I0
tp2043
I71107
s(I7
I7
I1
I63
I20161114
I0
tp2044
I72059
s(I7
I7
I6
I29
I20161114
I0
tp2045
I71704
s(I7
I6
I7
I57
I20161107
I0
tp2046
I70651
s(I7
I5
I3
I100
I20161103
I0
tp2047
I71092
s(I7
I7
I4
I22
I20161114
I0
tp2048
I71494
s(I7
I7
I1
I65
I20161114
I0
tp2049
I72061
s(I7
I5
I1
I102
I20161103
I0
tp2050
I70795
s(I7
I6
I1
I40
I20161107
I0
tp2051
I70039
s(I7
I7
I4
I56
I20161114
I0
tp2052
I71528
s(I7
I7
I1
I67
I20161114
I0
tp2053
I72063
s(I7
I5
I6
I40
I20161103
I0
tp2054
I71457
s(I7
I6
I4
I12
I20161107
I0
tp2055
I70309
s(I7
I7
I3
I3
I20161114
I0
tp2056
I72196
s(I7
I6
I5
I46
I20161107
I0
tp2057
I70443
s(I7
I5
I6
I10
I20161103
I0
tp2058
I71427
s(I7
I7
I6
I10
I20161114
I0
tp2059
I71685
s(I7
I5
I6
I29
I20161103
I0
tp2060
I71446
s(I7
I6
I3
I6
I20161107
I0
tp2061
I70202
s(I7
I6
I1
I45
I20161107
I0
tp2062
I70044
s(I7
I6
I2
I31
I20161107
I0
tp2063
I70128
s(I7
I6
I1
I86
I20161107
I0
tp2064
I70085
s(I7
I7
I2
I6
I20161114
I0
tp2065
I72100
s(I7
I5
I4
I87
I20161103
I0
tp2066
I71265
s(I7
I7
I3
I82
I20161114
I0
tp2067
I72275
s(I7
I6
I6
I61
I20161107
I0
tp2068
I70557
s(I7
I5
I4
I39
I20161103
I0
tp2069
I71151
s(I7
I5
I4
I88
I20161103
I0
tp2070
I71266
s(I7
I5
I7
I117
I20161103
I0
tp2071
I71993
s(I7
I7
I7
I48
I20161114
I0
tp2072
I71824
s(I7
I6
I6
I28
I20161107
I0
tp2073
I70524
s(I7
I5
I3
I18
I20161103
I1
tp2074
I71010
s(I7
I5
I4
I79
I20161103
I0
tp2075
I71257
s(I7
I6
I7
I58
I20161107
I0
tp2076
I70652
s(I7
I5
I4
I62
I20161103
I0
tp2077
I71174
s(I7
I7
I6
I54
I20161114
I0
tp2078
I71729
s(I7
I7
I5
I58
I20161114
I0
tp2079
I71631
s(I7
I7
I4
I58
I20161114
I0
tp2080
I71530
s(I7
I6
I2
I36
I20161107
I0
tp2081
I70133
s(I7
I6
I3
I74
I20161107
I0
tp2082
I70270
s(I7
I6
I1
I97
I20161107
I0
tp2083
I70096
s(I7
I5
I2
I115
I20161103
I0
tp2084
I70929
s(I7
I5
I4
I46
I20161103
I1
tp2085
I71224
s(I7
I5
I2
I98
I20161103
I0
tp2086
I70912
s(I7
I5
I4
I24
I20161103
I1
tp2087
I71202
s(I7
I5
I2
I80
I20161103
I0
tp2088
I70894
s(I7
I5
I2
I67
I20161103
I0
tp2089
I70881
s(I7
I5
I2
I104
I20161103
I0
tp2090
I70918
s(I7
I7
I1
I73
I20161114
I0
tp2091
I72069
s(I7
I5
I2
I50
I20161103
I0
tp2092
I70864
s(I7
I5
I2
I91
I20161103
I0
tp2093
I70905
s(I7
I7
I6
I8
I20161114
I0
tp2094
I71683
s(I7
I6
I6
I96
I20161107
I0
tp2095
I70592
s(I7
I7
I5
I23
I20161114
I0
tp2096
I71596
s(I7
I7
I3
I91
I20161114
I0
tp2097
I72284
s(I7
I7
I6
I46
I20161114
I0
tp2098
I71721
s(I7
I7
I1
I48
I20161114
I0
tp2099
I72044
s(I7
I7
I5
I77
I20161114
I0
tp2100
I71650
s(I7
I6
I1
I17
I20161107
I0
tp2101
I70016
s(I7
I6
I7
I86
I20161107
I0
tp2102
I70680
s(I7
I6
I5
I4
I20161107
I0
tp2103
I70401
s(I7
I6
I3
I59
I20161107
I0
tp2104
I70255
s(I7
I7
I7
I92
I20161114
I0
tp2105
I71868
s(I7
I6
I1
I3
I20161107
I0
tp2106
I70002
s(I7
I5
I1
I65
I20161103
I0
tp2107
I70758
s(I7
I6
I2
I39
I20161107
I0
tp2108
I70136
s(I7
I5
I1
I86
I20161103
I0
tp2109
I70779
s(I7
I6
I4
I47
I20161107
I0
tp2110
I70344
s(I7
I6
I7
I83
I20161107
I0
tp2111
I70677
s(I7
I5
I1
I96
I20161103
I0
tp2112
I70789
s(I7
I5
I1
I113
I20161103
I0
tp2113
I70806
s(I7
I7
I1
I39
I20161114
I0
tp2114
I72035
s(I7
I5
I1
I72
I20161103
I0
tp2115
I70765
s(I7
I6
I1
I78
I20161107
I0
tp2116
I70077
s(I7
I6
I1
I8
I20161107
I0
tp2117
I70007
s(I7
I5
I3
I23
I20161103
I0
tp2118
I70958
s(I7
I5
I3
I49
I20161103
I0
tp2119
I70984
s(I7
I7
I5
I50
I20161114
I0
tp2120
I71623
s(I7
I7
I4
I11
I20161114
I0
tp2121
I71483
s(I7
I6
I5
I79
I20161107
I0
tp2122
I70476
s(I7
I5
I6
I43
I20161103
I0
tp2123
I71460
s(I7
I7
I7
I67
I20161114
I0
tp2124
I71843
s(I7
I5
I6
I8
I20161103
I0
tp2125
I71425
s(I7
I7
I1
I20
I20161114
I0
tp2126
I72016
s(I7
I6
I6
I51
I20161107
I0
tp2127
I70547
s(I7
I5
I6
I27
I20161103
I0
tp2128
I71444
s(I7
I6
I5
I14
I20161107
I0
tp2129
I70411
s(I7
I6
I4
I88
I20161107
I0
tp2130
I70385
s(I7
I5
I6
I51
I20161103
I0
tp2131
I71468
s(I7
I5
I3
I9
I20161103
I1
tp2132
I71001
s(I7
I7
I4
I78
I20161114
I0
tp2133
I71550
s(I7
I5
I4
I104
I20161103
I0
tp2134
I71282
s(I7
I7
I5
I8
I20161114
I0
tp2135
I71581
s(I7
I5
I4
I95
I20161103
I0
tp2136
I71273
s(I7
I5
I4
I73
I20161103
I0
tp2137
I71251
s(I7
I5
I4
I56
I20161103
I0
tp2138
I71168
s(I7
I6
I6
I54
I20161107
I0
tp2139
I70550
s(I7
I6
I7
I84
I20161107
I0
tp2140
I70678
s(I7
I5
I4
I47
I20161103
I0
tp2141
I71159
s(I7
I6
I7
I26
I20161107
I0
tp2142
I70620
s(I7
I7
I6
I92
I20161114
I0
tp2143
I71767
s(I7
I7
I5
I80
I20161114
I0
tp2144
I71653
s(I7
I5
I7
I20
I20161103
I0
tp2145
I71896
s(I7
I5
I2
I120
I20161103
I0
tp2146
I70934
s(I7
I5
I7
I6
I20161103
I0
tp2147
I71882
s(I7
I7
I4
I3
I20161114
I0
tp2148
I71475
s(I7
I5
I2
I72
I20161103
I0
tp2149
I70886
s(I7
I7
I4
I41
I20161114
I0
tp2150
I71513
s(I7
I5
I2
I59
I20161103
I0
tp2151
I70873
s(I7
I5
I7
I25
I20161103
I0
tp2152
I71901
s(I7
I7
I7
I75
I20161114
I0
tp2153
I71851
s(I7
I6
I3
I88
I20161107
I0
tp2154
I70284
s(I7
I7
I6
I40
I20161114
I0
tp2155
I71715
s(I7
I6
I2
I56
I20161107
I0
tp2156
I70153
s(I7
I5
I2
I25
I20161103
I0
tp2157
I70839
s(I7
I7
I6
I9
I20161114
I0
tp2158
I71684
s(I7
I6
I1
I20
I20161107
I0
tp2159
I70019
s(I7
I5
I5
I5
I20161103
I0
tp2160
I71303
s(I7
I5
I5
I18
I20161103
I0
tp2161
I71316
s(I7
I7
I6
I25
I20161114
I0
tp2162
I71700
s(I7
I5
I5
I56
I20161103
I0
tp2163
I71354
s(I7
I6
I5
I34
I20161107
I0
tp2164
I70431
s(I7
I7
I7
I24
I20161114
I0
tp2165
I71800
s(I7
I6
I4
I78
I20161107
I0
tp2166
I70375
s(I7
I5
I5
I9
I20161103
I0
tp2167
I71307
s(I7
I6
I6
I10
I20161107
I0
tp2168
I70506
s(I7
I6
I2
I7
I20161107
I0
tp2169
I70104
s(I7
I5
I1
I56
I20161103
I0
tp2170
I70749
s(I7
I7
I2
I79
I20161114
I0
tp2171
I72173
s(I7
I7
I5
I54
I20161114
I0
tp2172
I71627
s(I7
I7
I4
I28
I20161114
I0
tp2173
I71500
s(I7
I6
I4
I15
I20161107
I0
tp2174
I70312
s(I7
I5
I7
I102
I20161103
I0
tp2175
I71978
s(I7
I5
I7
I119
I20161103
I0
tp2176
I71995
s(I7
I5
I1
I104
I20161103
I0
tp2177
I70797
s(I7
I5
I1
I121
I20161103
I0
tp2178
I70814
s(I7
I5
I3
I45
I20161103
I0
tp2179
I70980
s(I7
I5
I3
I17
I20161103
I0
tp2180
I70952
s(I7
I6
I6
I24
I20161107
I0
tp2181
I70520
s(I7
I5
I3
I56
I20161103
I0
tp2182
I70991
s(I7
I6
I7
I62
I20161107
I0
tp2183
I70656
s(I7
I6
I5
I85
I20161107
I0
tp2184
I70482
s(I7
I5
I3
I41
I20161103
I0
tp2185
I70976
s(I7
I7
I7
I15
I20161114
I0
tp2186
I71791
s(I7
I7
I7
I45
I20161114
I0
tp2187
I71821
s(I7
I7
I7
I99
I20161114
I0
tp2188
I71875
s(I7
I5
I3
I8
I20161103
I0
tp2189
I70943
s(I7
I5
I5
I106
I20161103
I0
tp2190
I71404
s(I7
I6
I6
I85
I20161107
I0
tp2191
I70581
s(I7
I6
I6
I19
I20161107
I0
tp2192
I70515
s(I7
I6
I7
I55
I20161107
I0
tp2193
I70649
s(I7
I6
I5
I82
I20161107
I0
tp2194
I70479
s(I7
I5
I6
I31
I20161103
I0
tp2195
I71448
s(I7
I7
I4
I63
I20161114
I0
tp2196
I71535
s(I7
I7
I4
I97
I20161114
I0
tp2197
I71569
s(I7
I7
I1
I61
I20161114
I0
tp2198
I72057
s(I7
I7
I4
I39
I20161114
I0
tp2199
I71511
s(I7
I5
I4
I27
I20161103
I1
tp2200
I71205
s(I7
I6
I7
I52
I20161107
I0
tp2201
I70646
s(I7
I6
I7
I38
I20161107
I0
tp2202
I70632
s(I7
I7
I3
I96
I20161114
I0
tp2203
I72289
s(I7
I5
I4
I11
I20161103
I0
tp2204
I71123
s(I7
I5
I4
I19
I20161103
I0
tp2205
I71131
s(I7
I5
I4
I2
I20161103
I0
tp2206
I71114
s(I7
I6
I7
I5
I20161107
I0
tp2207
I70599
s(I7
I7
I1
I88
I20161114
I0
tp2208
I72084
s(I7
I6
I6
I18
I20161107
I0
tp2209
I70514
s(I7
I6
I4
I55
I20161107
I0
tp2210
I70352
s(I7
I6
I5
I1
I20161107
I0
tp2211
I70398
s(I7
I6
I3
I56
I20161107
I0
tp2212
I70252
s(I7
I7
I4
I93
I20161114
I0
tp2213
I71565
s(I7
I5
I2
I31
I20161103
I0
tp2214
I70845
s(I7
I5
I2
I14
I20161103
I0
tp2215
I70828
s(I7
I6
I2
I34
I20161107
I0
tp2216
I70131
s(I7
I5
I2
I55
I20161103
I0
tp2217
I70869
s(I7
I7
I3
I50
I20161114
I0
tp2218
I72243
s(I7
I6
I1
I64
I20161107
I0
tp2219
I70063
s(I7
I5
I2
I7
I20161103
I0
tp2220
I70821
s(I7
I7
I3
I10
I20161114
I0
tp2221
I72203
s(I7
I7
I2
I62
I20161114
I0
tp2222
I72156
s(I7
I5
I4
I108
I20161103
I0
tp2223
I71286
s(I7
I6
I5
I2
I20161107
I0
tp2224
I70399
s(I7
I6
I4
I84
I20161107
I0
tp2225
I70381
s(I7
I6
I7
I33
I20161107
I0
tp2226
I70627
s(I7
I6
I5
I72
I20161107
I0
tp2227
I70469
s(I7
I7
I6
I52
I20161114
I0
tp2228
I71727
s(I7
I7
I5
I43
I20161114
I0
tp2229
I71616
s(I7
I7
I4
I2
I20161114
I0
tp2230
I71474
s(I7
I7
I5
I22
I20161114
I0
tp2231
I71595
s(I7
I7
I4
I60
I20161114
I0
tp2232
I71532
s(I7
I7
I4
I36
I20161114
I0
tp2233
I71508
s(I7
I7
I2
I25
I20161114
I0
tp2234
I72119
s(I7
I5
I7
I75
I20161103
I0
tp2235
I71951
s(I7
I7
I5
I36
I20161114
I0
tp2236
I71609
s(I7
I6
I7
I30
I20161107
I0
tp2237
I70624
s(I7
I6
I2
I21
I20161107
I0
tp2238
I70118
s(I7
I5
I4
I34
I20161103
I1
tp2239
I71212
s(I7
I5
I2
I110
I20161103
I0
tp2240
I70924
s(I7
I6
I1
I82
I20161107
I0
tp2241
I70081
s(I7
I6
I3
I26
I20161107
I0
tp2242
I70222
s(I7
I6
I1
I49
I20161107
I0
tp2243
I70048
s(I7
I6
I6
I53
I20161107
I0
tp2244
I70549
s(I7
I7
I5
I41
I20161114
I0
tp2245
I71614
s(I7
I7
I1
I44
I20161114
I0
tp2246
I72040
s(I7
I7
I2
I22
I20161114
I0
tp2247
I72116
s(I7
I7
I2
I52
I20161114
I0
tp2248
I72146
s(I7
I5
I5
I119
I20161103
I0
tp2249
I71417
s(I7
I7
I4
I37
I20161114
I0
tp2250
I71509
s(I7
I5
I4
I43
I20161103
I1
tp2251
I71221
s(I7
I6
I6
I4
I20161107
I0
tp2252
I70500
s(I7
I6
I4
I45
I20161107
I0
tp2253
I70342
s(I7
I7
I2
I82
I20161114
I0
tp2254
I72176
s(I7
I7
I4
I13
I20161114
I0
tp2255
I71485
s(I7
I6
I5
I73
I20161107
I0
tp2256
I70470
s(I7
I5
I4
I51
I20161103
I1
tp2257
I71229
s(I7
I7
I5
I84
I20161114
I0
tp2258
I71657
s(I7
I5
I5
I39
I20161103
I0
tp2259
I71337
s(I7
I6
I3
I81
I20161107
I0
tp2260
I70277
s(I7
I5
I4
I3
I20161103
I1
tp2261
I71181
s(I7
I5
I1
I47
I20161103
I0
tp2262
I70740
s(I7
I5
I1
I5
I20161103
I0
tp2263
I70698
s(I7
I5
I1
I26
I20161103
I0
tp2264
I70719
s(I7
I7
I3
I60
I20161114
I0
tp2265
I72253
s(I7
I5
I1
I43
I20161103
I0
tp2266
I70736
s(I7
I7
I6
I5
I20161114
I0
tp2267
I71680
s(I7
I5
I3
I108
I20161103
I0
tp2268
I71100
s(I7
I7
I6
I97
I20161114
I0
tp2269
I71772
s(I7
I5
I1
I74
I20161103
I0
tp2270
I70767
s(I7
I5
I3
I90
I20161103
I0
tp2271
I71082
s(I7
I5
I3
I75
I20161103
I0
tp2272
I71067
s(I7
I5
I3
I60
I20161103
I0
tp2273
I71052
s(I7
I6
I5
I26
I20161107
I0
tp2274
I70423
s(I7
I7
I5
I97
I20161114
I0
tp2275
I71670
s(I7
I5
I2
I23
I20161103
I0
tp2276
I70837
s(I7
I5
I3
I11
I20161103
I1
tp2277
I71003
s(I7
I5
I3
I35
I20161103
I1
tp2278
I71027
s(I7
I7
I3
I42
I20161114
I0
tp2279
I72235
s(I7
I5
I4
I118
I20161103
I0
tp2280
I71296
s(I7
I6
I7
I10
I20161107
I0
tp2281
I70604
s(I7
I6
I2
I35
I20161107
I0
tp2282
I70132
s(I7
I6
I7
I59
I20161107
I0
tp2283
I70653
s(I7
I6
I5
I86
I20161107
I0
tp2284
I70483
s(I7
I6
I6
I91
I20161107
I0
tp2285
I70587
s(I7
I5
I3
I26
I20161103
I1
tp2286
I71018
s(I7
I7
I4
I34
I20161114
I0
tp2287
I71506
s(I7
I7
I4
I10
I20161114
I0
tp2288
I71482
s(I7
I7
I1
I79
I20161114
I0
tp2289
I72075
s(I7
I5
I4
I23
I20161103
I0
tp2290
I71135
s(I7
I5
I7
I113
I20161103
I0
tp2291
I71989
s(I7
I5
I7
I43
I20161103
I0
tp2292
I71919
s(I7
I5
I7
I66
I20161103
I0
tp2293
I71942
s(I7
I5
I7
I83
I20161103
I0
tp2294
I71959
s.