(dp0
(S'4'
p1
I6
I1
I55
I20161122
tp2
I40327
s(g1
I5
I4
I14
I20161110
tp3
I40013
s(g1
I5
I4
I49
I20161110
tp4
I40048
s(g1
I7
I2
I11
I20161123
tp5
I40707
s(g1
I5
I1
I77
I20161110
tp6
I40210
s(g1
I5
I1
I99
I20161110
tp7
I40232
s(g1
I7
I2
I70
I20161123
tp8
I40766
s(g1
I7
I1
I23
I20161123
tp9
I40619
s(g1
I7
I5
I78
I20161123
tp10
I40505
s(g1
I6
I2
I14
I20161122
tp11
I40391
s(g1
I6
I1
I22
I20161122
tp12
I40294
s(g1
I5
I4
I104
I20161110
tp13
I40103
s(g1
I6
I1
I47
I20161122
tp14
I40319
s(g1
I7
I2
I57
I20161123
tp15
I40753
s(g1
I5
I4
I28
I20161110
tp16
I40027
s(g1
I7
I2
I3
I20161123
tp17
I40699
s(g1
I7
I6
I61
I20161123
tp18
I40588
s(g1
I7
I5
I53
I20161123
tp19
I40480
s(g1
I5
I2
I9
I20161110
tp20
I40243
s(g1
I7
I2
I27
I20161123
tp21
I40723
s(g1
I7
I6
I21
I20161123
tp22
I40548
s(g1
I7
I5
I13
I20161123
tp23
I40440
s(g1
I5
I1
I28
I20161110
tp24
I40161
s(g1
I6
I2
I41
I20161122
tp25
I40418
s(g1
I5
I4
I31
I20161110
tp26
I40030
s(g1
I7
I6
I32
I20161123
tp27
I40559
s(g1
I7
I1
I84
I20161123
tp28
I40680
s(g1
I5
I1
I47
I20161110
tp29
I40180
s(g1
I5
I4
I64
I20161110
tp30
I40063
s(g1
I5
I4
I1
I20161110
tp31
I40000
s(g1
I5
I2
I4
I20161110
tp32
I40238
s(g1
I5
I4
I88
I20161110
tp33
I40087
s(g1
I5
I1
I51
I20161110
tp34
I40184
s(g1
I6
I1
I53
I20161122
tp35
I40325
s(g1
I7
I2
I9
I20161123
tp36
I40705
s(g1
I7
I5
I63
I20161123
tp37
I40490
s(g1
I7
I1
I30
I20161123
tp38
I40626
s(g1
I7
I6
I30
I20161123
tp39
I40557
s(g1
I7
I1
I19
I20161123
tp40
I40615
s(g1
I5
I1
I89
I20161110
tp41
I40222
s(g1
I7
I1
I76
I20161123
tp42
I40672
s(g1
I7
I5
I66
I20161123
tp43
I40493
s(g1
I7
I2
I53
I20161123
tp44
I40749
s(g1
I7
I6
I35
I20161123
tp45
I40562
s(g1
I7
I5
I90
I20161123
tp46
I40517
s(g1
I5
I5
I27
I20161110
tp47
I40131
s(g1
I6
I1
I20
I20161122
tp48
I40292
s(g1
I7
I6
I59
I20161123
tp49
I40586
s(g1
I5
I1
I90
I20161110
tp50
I40223
s(g1
I5
I1
I86
I20161110
tp51
I40219
s(g1
I7
I5
I4
I20161123
tp52
I40431
s(g1
I5
I2
I24
I20161110
tp53
I40258
s(g1
I5
I1
I68
I20161110
tp54
I40201
s(g1
I5
I4
I71
I20161110
tp55
I40070
s(g1
I5
I1
I63
I20161110
tp56
I40196
s(g1
I5
I4
I46
I20161110
tp57
I40045
s(g1
I7
I1
I86
I20161123
tp58
I40682
s(g1
I6
I1
I35
I20161122
tp59
I40307
s(g1
I5
I1
I23
I20161110
tp60
I40156
s(g1
I5
I1
I3
I20161110
tp61
I40136
s(g1
I7
I6
I5
I20161123
tp62
I40532
s(g1
I7
I5
I33
I20161123
tp63
I40460
s(g1
I7
I1
I95
I20161123
tp64
I40691
s(g1
I5
I4
I84
I20161110
tp65
I40083
s(g1
I7
I1
I61
I20161123
tp66
I40657
s(g1
I5
I2
I16
I20161110
tp67
I40250
s(g1
I7
I2
I64
I20161123
tp68
I40760
s(g1
I7
I1
I74
I20161123
tp69
I40670
s(g1
I7
I6
I18
I20161123
tp70
I40545
s(g1
I5
I4
I48
I20161110
tp71
I40047
s(g1
I6
I1
I19
I20161122
tp72
I40291
s(g1
I6
I2
I46
I20161122
tp73
I40423
s(g1
I7
I5
I76
I20161123
tp74
I40503
s(g1
I5
I4
I8
I20161110
tp75
I40007
s(g1
I5
I4
I38
I20161110
tp76
I40037
s(g1
I5
I5
I12
I20161110
tp77
I40116
s(g1
I7
I1
I26
I20161123
tp78
I40622
s(g1
I6
I1
I103
I20161122
tp79
I40375
s(g1
I5
I2
I3
I20161110
tp80
I40237
s(g1
I5
I1
I60
I20161110
tp81
I40193
s(g1
I5
I2
I27
I20161110
tp82
I40261
s(g1
I5
I2
I23
I20161110
tp83
I40257
s(g1
I5
I4
I63
I20161110
tp84
I40062
s(g1
I7
I5
I37
I20161123
tp85
I40464
s(g1
I7
I1
I34
I20161123
tp86
I40630
s(g1
I5
I4
I23
I20161110
tp87
I40022
s(g1
I6
I2
I45
I20161122
tp88
I40422
s(g1
I5
I4
I45
I20161110
tp89
I40044
s(g1
I5
I4
I33
I20161110
tp90
I40032
s(g1
I5
I2
I36
I20161110
tp91
I40270
s(g1
I6
I1
I60
I20161122
tp92
I40332
s(g1
I7
I1
I73
I20161123
tp93
I40669
s(g1
I5
I4
I86
I20161110
tp94
I40085
s(g1
I6
I1
I85
I20161122
tp95
I40357
s(g1
I5
I2
I33
I20161110
tp96
I40267
s(g1
I6
I1
I37
I20161122
tp97
I40309
s(g1
I5
I4
I91
I20161110
tp98
I40090
s(g1
I5
I1
I11
I20161110
tp99
I40144
s(g1
I5
I1
I52
I20161110
tp100
I40185
s(g1
I6
I2
I42
I20161122
tp101
I40419
s(g1
I6
I2
I1
I20161122
tp102
I40378
s(g1
I5
I4
I55
I20161110
tp103
I40054
s(g1
I7
I6
I7
I20161123
tp104
I40534
s(g1
I6
I2
I48
I20161122
tp105
I40425
s(g1
I7
I6
I16
I20161123
tp106
I40543
s(g1
I5
I4
I24
I20161110
tp107
I40023
s(g1
I7
I1
I4
I20161123
tp108
I40600
s(g1
I6
I1
I100
I20161122
tp109
I40372
s(g1
I6
I1
I52
I20161122
tp110
I40324
s(g1
I7
I1
I28
I20161123
tp111
I40624
s(g1
I6
I1
I13
I20161122
tp112
I40285
s(g1
I5
I1
I16
I20161110
tp113
I40149
s(g1
I6
I1
I76
I20161122
tp114
I40348
s(g1
I7
I1
I89
I20161123
tp115
I40685
s(g1
I5
I1
I12
I20161110
tp116
I40145
s(g1
I5
I5
I29
I20161110
tp117
I40133
s(g1
I6
I1
I61
I20161122
tp118
I40333
s(g1
I7
I6
I54
I20161123
tp119
I40581
s(g1
I5
I1
I100
I20161110
tp120
I40233
s(g1
I7
I6
I14
I20161123
tp121
I40541
s(g1
I7
I5
I96
I20161123
tp122
I40523
s(g1
I6
I2
I11
I20161122
tp123
I40388
s(g1
I5
I4
I103
I20161110
tp124
I40102
s(g1
I6
I2
I34
I20161122
tp125
I40411
s(g1
I6
I1
I42
I20161122
tp126
I40314
s(g1
I5
I4
I36
I20161110
tp127
I40035
s(g1
I6
I1
I67
I20161122
tp128
I40339
s(g1
I5
I4
I19
I20161110
tp129
I40018
s(g1
I5
I4
I41
I20161110
tp130
I40040
s(g1
I7
I5
I10
I20161123
tp131
I40437
s(g1
I6
I1
I81
I20161122
tp132
I40353
s(g1
I5
I1
I69
I20161110
tp133
I40202
s(g1
I5
I1
I4
I20161110
tp134
I40137
s(g1
I7
I1
I29
I20161123
tp135
I40625
s(g1
I5
I1
I93
I20161110
tp136
I40226
s(g1
I7
I5
I39
I20161123
tp137
I40466
s(g1
I7
I2
I56
I20161123
tp138
I40752
s(g1
I6
I2
I3
I20161122
tp139
I40380
s(g1
I7
I5
I44
I20161123
tp140
I40471
s(g1
I7
I1
I83
I20161123
tp141
I40679
s(g1
I7
I2
I16
I20161123
tp142
I40712
s(g1
I6
I2
I27
I20161122
tp143
I40404
s(g1
I6
I1
I58
I20161122
tp144
I40330
s(g1
I7
I6
I65
I20161123
tp145
I40592
s(g1
I5
I1
I74
I20161110
tp146
I40207
s(g1
I5
I2
I35
I20161110
tp147
I40269
s(g1
I6
I1
I98
I20161122
tp148
I40370
s(g1
I5
I4
I89
I20161110
tp149
I40088
s(g1
I7
I5
I81
I20161123
tp150
I40508
s(g1
I5
I2
I28
I20161110
tp151
I40262
s(g1
I7
I1
I56
I20161123
tp152
I40652
s(g1
I7
I2
I41
I20161123
tp153
I40737
s(g1
I5
I1
I97
I20161110
tp154
I40230
s(g1
I6
I2
I12
I20161122
tp155
I40389
s(g1
I7
I1
I32
I20161123
tp156
I40628
s(g1
I6
I1
I63
I20161122
tp157
I40335
s(g1
I6
I2
I30
I20161122
tp158
I40407
s(g1
I7
I5
I60
I20161123
tp159
I40487
s(g1
I7
I1
I50
I20161123
tp160
I40646
s(g1
I5
I4
I99
I20161110
tp161
I40098
s(g1
I5
I1
I66
I20161110
tp162
I40199
s(g1
I7
I2
I19
I20161123
tp163
I40715
s(g1
I6
I1
I87
I20161122
tp164
I40359
s(g1
I5
I1
I43
I20161110
tp165
I40176
s(g1
I7
I5
I73
I20161123
tp166
I40500
s(g1
I5
I2
I20
I20161110
tp167
I40254
s(g1
I7
I1
I71
I20161123
tp168
I40667
s(g1
I7
I1
I68
I20161123
tp169
I40664
s(g1
I7
I2
I38
I20161123
tp170
I40734
s(g1
I7
I2
I59
I20161123
tp171
I40755
s(g1
I7
I2
I62
I20161123
tp172
I40758
s(g1
I6
I2
I5
I20161122
tp173
I40382
s(g1
I7
I2
I37
I20161123
tp174
I40733
s(g1
I7
I2
I67
I20161123
tp175
I40763
s(g1
I7
I5
I46
I20161123
tp176
I40473
s(g1
I7
I1
I97
I20161123
tp177
I40693
s(g1
I6
I1
I45
I20161122
tp178
I40317
s(g1
I5
I1
I48
I20161110
tp179
I40181
s(g1
I5
I5
I9
I20161110
tp180
I40113
s(g1
I6
I1
I69
I20161122
tp181
I40341
s(g1
I5
I2
I11
I20161110
tp182
I40245
s(g1
I7
I2
I25
I20161123
tp183
I40721
s(g1
I7
I1
I17
I20161123
tp184
I40613
s(g1
I5
I1
I91
I20161110
tp185
I40224
s(g1
I7
I5
I15
I20161123
tp186
I40442
s(g1
I7
I6
I41
I20161123
tp187
I40568
s(g1
I6
I1
I4
I20161122
tp188
I40276
s(g1
I6
I2
I8
I20161122
tp189
I40385
s(g1
I7
I6
I40
I20161123
tp190
I40567
s(g1
I7
I1
I92
I20161123
tp191
I40688
s(g1
I5
I1
I58
I20161110
tp192
I40191
s(g1
I6
I1
I12
I20161122
tp193
I40284
s(g1
I7
I1
I52
I20161123
tp194
I40648
s(g1
I5
I1
I18
I20161110
tp195
I40151
s(g1
I5
I1
I40
I20161110
tp196
I40173
s(g1
I6
I1
I36
I20161122
tp197
I40308
s(g1
I5
I1
I36
I20161110
tp198
I40169
s(g1
I5
I1
I83
I20161110
tp199
I40216
s(g1
I7
I5
I7
I20161123
tp200
I40434
s(g1
I7
I6
I38
I20161123
tp201
I40565
s(g1
I7
I5
I31
I20161123
tp202
I40458
s(g1
I7
I1
I2
I20161123
tp203
I40598
s(g1
I6
I1
I2
I20161122
tp204
I40274
s(g1
I6
I1
I28
I20161122
tp205
I40300
s(g1
I6
I1
I27
I20161122
tp206
I40299
s(g1
I6
I2
I18
I20161122
tp207
I40395
s(g1
I7
I5
I40
I20161123
tp208
I40467
s(g1
I7
I1
I38
I20161123
tp209
I40634
s(g1
I6
I1
I51
I20161122
tp210
I40323
s(g1
I5
I4
I69
I20161110
tp211
I40068
s(g1
I5
I5
I25
I20161110
tp212
I40129
s(g1
I7
I2
I7
I20161123
tp213
I40703
s(g1
I7
I1
I99
I20161123
tp214
I40695
s(g1
I7
I6
I57
I20161123
tp215
I40584
s(g1
I7
I5
I49
I20161123
tp216
I40476
s(g1
I5
I1
I88
I20161110
tp217
I40221
s(g1
I5
I2
I22
I20161110
tp218
I40256
s(g1
I7
I6
I27
I20161123
tp219
I40554
s(g1
I5
I5
I5
I20161110
tp220
I40109
s(g1
I5
I2
I19
I20161110
tp221
I40253
s(g1
I5
I2
I15
I20161110
tp222
I40249
s(g1
I7
I2
I40
I20161123
tp223
I40736
s(g1
I5
I4
I15
I20161110
tp224
I40014
s(g1
I7
I2
I52
I20161123
tp225
I40748
s(g1
I6
I2
I10
I20161122
tp226
I40387
s(g1
I6
I1
I18
I20161122
tp227
I40290
s(g1
I7
I6
I13
I20161123
tp228
I40540
s(g1
I5
I1
I98
I20161110
tp229
I40231
s(g1
I5
I4
I78
I20161110
tp230
I40077
s(g1
I5
I1
I33
I20161110
tp231
I40166
s(g1
I7
I5
I41
I20161123
tp232
I40468
s(g1
I5
I5
I18
I20161110
tp233
I40122
s(g1
I5
I1
I57
I20161110
tp234
I40190
s(g1
I7
I5
I1
I20161123
tp235
I40428
s(g1
I7
I1
I63
I20161123
tp236
I40659
s(g1
I7
I2
I30
I20161123
tp237
I40726
s(g1
I5
I4
I2
I20161110
tp238
I40001
s(g1
I7
I2
I65
I20161123
tp239
I40761
s(g1
I7
I6
I36
I20161123
tp240
I40563
s(g1
I7
I1
I80
I20161123
tp241
I40676
s(g1
I7
I6
I47
I20161123
tp242
I40574
s(g1
I5
I4
I85
I20161110
tp243
I40084
s(g1
I7
I2
I47
I20161123
tp244
I40743
s(g1
I5
I1
I54
I20161110
tp245
I40187
s(g1
I7
I5
I97
I20161123
tp246
I40524
s(g1
I5
I4
I90
I20161110
tp247
I40089
s(g1
I5
I5
I10
I20161110
tp248
I40114
s(g1
I5
I5
I21
I20161110
tp249
I40125
s(g1
I7
I1
I55
I20161123
tp250
I40651
s(g1
I5
I1
I92
I20161110
tp251
I40225
s(g1
I7
I1
I42
I20161123
tp252
I40638
s(g1
I7
I5
I23
I20161123
tp253
I40450
s(g1
I7
I1
I15
I20161123
tp254
I40611
s(g1
I7
I1
I98
I20161123
tp255
I40694
s(g1
I7
I5
I70
I20161123
tp256
I40497
s(g1
I7
I1
I20
I20161123
tp257
I40616
s(g1
I6
I1
I5
I20161122
tp258
I40277
s(g1
I7
I6
I39
I20161123
tp259
I40566
s(g1
I7
I5
I94
I20161123
tp260
I40521
s(g1
I5
I4
I30
I20161110
tp261
I40029
s(g1
I6
I1
I29
I20161122
tp262
I40301
s(g1
I5
I4
I52
I20161110
tp263
I40051
s(g1
I5
I1
I71
I20161110
tp264
I40204
s(g1
I6
I1
I92
I20161122
tp265
I40364
s(g1
I7
I1
I41
I20161123
tp266
I40637
s(g1
I5
I1
I9
I20161110
tp267
I40142
s(g1
I7
I1
I1
I20161123
tp268
I40597
s(g1
I7
I2
I68
I20161123
tp269
I40764
s(g1
I7
I5
I6
I20161123
tp270
I40433
s(g1
I6
I2
I50
I20161122
tp271
I40427
s(g1
I7
I5
I8
I20161123
tp272
I40435
s(g1
I5
I4
I22
I20161110
tp273
I40021
s(g1
I6
I1
I21
I20161122
tp274
I40293
s(g1
I7
I5
I26
I20161123
tp275
I40453
s(g1
I6
I1
I84
I20161122
tp276
I40356
s(g1
I5
I5
I26
I20161110
tp277
I40130
s(g1
I7
I5
I95
I20161123
tp278
I40522
s(g1
I7
I2
I1
I20161123
tp279
I40697
s(g1
I7
I1
I57
I20161123
tp280
I40653
s(g1
I7
I5
I55
I20161123
tp281
I40482
s(g1
I7
I6
I22
I20161123
tp282
I40549
s(g1
I7
I2
I8
I20161123
tp283
I40704
s(g1
I6
I2
I19
I20161122
tp284
I40396
s(g1
I5
I4
I5
I20161110
tp285
I40004
s(g1
I7
I2
I39
I20161123
tp286
I40735
s(g1
I7
I5
I64
I20161123
tp287
I40491
s(g1
I6
I2
I43
I20161122
tp288
I40420
s(g1
I6
I1
I11
I20161122
tp289
I40283
s(g1
I5
I4
I29
I20161110
tp290
I40028
s(g1
I6
I1
I74
I20161122
tp291
I40346
s(g1
I5
I4
I17
I20161110
tp292
I40016
s(g1
I7
I1
I22
I20161123
tp293
I40618
s(g1
I6
I1
I99
I20161122
tp294
I40371
s(g1
I5
I1
I87
I20161110
tp295
I40220
s(g1
I5
I4
I70
I20161110
tp296
I40069
s(g1
I5
I4
I34
I20161110
tp297
I40033
s(g1
I6
I2
I28
I20161122
tp298
I40405
s(g1
I7
I6
I4
I20161123
tp299
I40531
s(g1
I5
I4
I39
I20161110
tp300
I40038
s(g1
I7
I2
I24
I20161123
tp301
I40720
s(g1
I6
I2
I35
I20161122
tp302
I40412
s(g1
I6
I1
I3
I20161122
tp303
I40275
s(g1
I7
I5
I12
I20161123
tp304
I40439
s(g1
I5
I4
I72
I20161110
tp305
I40071
s(g1
I5
I4
I102
I20161110
tp306
I40101
s(g1
I7
I5
I65
I20161123
tp307
I40492
s(g1
I5
I5
I1
I20161110
tp308
I40105
s(g1
I6
I1
I90
I20161122
tp309
I40362
s(g1
I7
I6
I33
I20161123
tp310
I40560
s(g1
I7
I5
I89
I20161123
tp311
I40516
s(g1
I5
I1
I64
I20161110
tp312
I40197
s(g1
I7
I5
I47
I20161123
tp313
I40474
s(g1
I7
I5
I62
I20161123
tp314
I40489
s(g1
I7
I2
I54
I20161123
tp315
I40750
s(g1
I5
I1
I84
I20161110
tp316
I40217
s(g1
I5
I2
I2
I20161110
tp317
I40236
s(g1
I6
I2
I21
I20161122
tp318
I40398
s(g1
I6
I2
I44
I20161122
tp319
I40421
s(g1
I5
I4
I87
I20161110
tp320
I40086
s(g1
I5
I1
I15
I20161110
tp321
I40148
s(g1
I5
I1
I37
I20161110
tp322
I40170
s(g1
I5
I5
I14
I20161110
tp323
I40118
s(g1
I7
I1
I24
I20161123
tp324
I40620
s(g1
I6
I1
I9
I20161122
tp325
I40281
s(g1
I5
I1
I61
I20161110
tp326
I40194
s(g1
I5
I1
I41
I20161110
tp327
I40174
s(g1
I7
I5
I75
I20161123
tp328
I40502
s(g1
I7
I5
I28
I20161123
tp329
I40455
s(g1
I7
I6
I42
I20161123
tp330
I40569
s(g1
I7
I1
I39
I20161123
tp331
I40635
s(g1
I7
I5
I22
I20161123
tp332
I40449
s(g1
I7
I2
I6
I20161123
tp333
I40702
s(g1
I5
I4
I42
I20161110
tp334
I40041
s(g1
I7
I6
I56
I20161123
tp335
I40583
s(g1
I5
I1
I7
I20161110
tp336
I40140
s(g1
I5
I4
I54
I20161110
tp337
I40053
s(g1
I5
I5
I6
I20161110
tp338
I40110
s(g1
I7
I5
I14
I20161123
tp339
I40441
s(g1
I7
I1
I65
I20161123
tp340
I40661
s(g1
I6
I1
I77
I20161122
tp341
I40349
s(g1
I5
I1
I80
I20161110
tp342
I40213
s(g1
I7
I1
I25
I20161123
tp343
I40621
s(g1
I5
I4
I73
I20161110
tp344
I40072
s(g1
I7
I2
I72
I20161123
tp345
I40768
s(g1
I5
I2
I13
I20161110
tp346
I40247
s(g1
I5
I2
I18
I20161110
tp347
I40252
s(g1
I5
I4
I37
I20161110
tp348
I40036
s(g1
I7
I5
I32
I20161123
tp349
I40459
s(g1
I5
I4
I26
I20161110
tp350
I40025
s(g1
I5
I4
I61
I20161110
tp351
I40060
s(g1
I6
I2
I23
I20161122
tp352
I40400
s(g1
I7
I5
I56
I20161123
tp353
I40483
s(g1
I7
I6
I69
I20161123
tp354
I40596
s(g1
I7
I2
I23
I20161123
tp355
I40719
s(g1
I6
I1
I68
I20161122
tp356
I40340
s(g1
I7
I1
I81
I20161123
tp357
I40677
s(g1
I5
I1
I27
I20161110
tp358
I40160
s(g1
I5
I4
I65
I20161110
tp359
I40064
s(g1
I5
I1
I49
I20161110
tp360
I40182
s(g1
I7
I1
I8
I20161123
tp361
I40604
s(g1
I7
I6
I46
I20161123
tp362
I40573
s(g1
I5
I2
I10
I20161110
tp363
I40244
s(g1
I5
I4
I58
I20161110
tp364
I40057
s(g1
I6
I2
I2
I20161122
tp365
I40379
s(g1
I7
I6
I6
I20161123
tp366
I40533
s(g1
I5
I4
I18
I20161110
tp367
I40017
s(g1
I6
I2
I26
I20161122
tp368
I40403
s(g1
I6
I1
I34
I20161122
tp369
I40306
s(g1
I7
I1
I46
I20161123
tp370
I40642
s(g1
I6
I1
I59
I20161122
tp371
I40331
s(g1
I7
I5
I20
I20161123
tp372
I40447
s(g1
I7
I2
I15
I20161123
tp373
I40711
s(g1
I7
I1
I6
I20161123
tp374
I40602
s(g1
I6
I1
I83
I20161122
tp375
I40355
s(g1
I5
I1
I96
I20161110
tp376
I40229
s(g1
I5
I1
I6
I20161110
tp377
I40139
s(g1
I5
I5
I23
I20161110
tp378
I40127
s(g1
I7
I1
I67
I20161123
tp379
I40663
s(g1
I7
I6
I25
I20161123
tp380
I40552
s(g1
I7
I5
I17
I20161123
tp381
I40444
s(g1
I5
I2
I29
I20161110
tp382
I40263
s(g1
I6
I1
I10
I20161122
tp383
I40282
s(g1
I7
I2
I58
I20161123
tp384
I40754
s(g1
I7
I6
I52
I20161123
tp385
I40579
s(g1
I5
I4
I13
I20161110
tp386
I40012
s(g1
I6
I2
I13
I20161122
tp387
I40390
s(g1
I7
I2
I74
I20161123
tp388
I40770
s(g1
I6
I1
I16
I20161122
tp389
I40288
s(g1
I6
I1
I41
I20161122
tp390
I40313
s(g1
I6
I1
I50
I20161122
tp391
I40322
s(g1
I5
I4
I57
I20161110
tp392
I40056
s(g1
I5
I1
I24
I20161110
tp393
I40157
s(g1
I5
I1
I20
I20161110
tp394
I40153
s(g1
I7
I6
I17
I20161123
tp395
I40544
s(g1
I7
I5
I9
I20161123
tp396
I40436
s(g1
I7
I1
I7
I20161123
tp397
I40603
s(g1
I5
I1
I67
I20161110
tp398
I40200
s(g1
I5
I4
I20
I20161110
tp399
I40019
s(g1
I7
I1
I31
I20161123
tp400
I40627
s(g1
I6
I2
I4
I20161122
tp401
I40381
s(g1
I5
I1
I39
I20161110
tp402
I40172
s(g1
I7
I5
I86
I20161123
tp403
I40513
s(g1
I7
I5
I36
I20161123
tp404
I40463
s(g1
I7
I1
I48
I20161123
tp405
I40644
s(g1
I6
I1
I38
I20161122
tp406
I40310
s(g1
I7
I2
I34
I20161123
tp407
I40730
s(g1
I6
I1
I32
I20161122
tp408
I40304
s(g1
I7
I6
I15
I20161123
tp409
I40542
s(g1
I7
I5
I99
I20161123
tp410
I40526
s(g1
I7
I6
I66
I20161123
tp411
I40593
s(g1
I5
I1
I72
I20161110
tp412
I40205
s(g1
I5
I2
I6
I20161110
tp413
I40240
s(g1
I7
I5
I19
I20161123
tp414
I40446
s(g1
I5
I4
I16
I20161110
tp415
I40015
s(g1
I5
I4
I21
I20161110
tp416
I40020
s(g1
I7
I5
I38
I20161123
tp417
I40465
s(g1
I5
I4
I9
I20161110
tp418
I40008
s(g1
I5
I1
I82
I20161110
tp419
I40215
s(g1
I5
I2
I12
I20161110
tp420
I40246
s(g1
I5
I2
I38
I20161110
tp421
I40272
s(g1
I7
I1
I49
I20161123
tp422
I40645
s(g1
I5
I4
I97
I20161110
tp423
I40096
s(g1
I7
I2
I5
I20161123
tp424
I40701
s(g1
I7
I6
I31
I20161123
tp425
I40558
s(g1
I7
I2
I17
I20161123
tp426
I40713
s(g1
I7
I1
I9
I20161123
tp427
I40605
s(g1
I5
I5
I24
I20161110
tp428
I40128
s(g1
I7
I1
I10
I20161123
tp429
I40606
s(g1
I7
I5
I69
I20161123
tp430
I40496
s(g1
I7
I1
I78
I20161123
tp431
I40674
s(g1
I5
I4
I50
I20161110
tp432
I40049
s(g1
I7
I2
I36
I20161123
tp433
I40732
s(g1
I7
I5
I80
I20161123
tp434
I40507
s(g1
I6
I1
I14
I20161122
tp435
I40286
s(g1
I5
I1
I38
I20161110
tp436
I40171
s(g1
I5
I2
I1
I20161110
tp437
I40235
s(g1
I5
I1
I85
I20161110
tp438
I40218
s(g1
I7
I2
I66
I20161123
tp439
I40762
s(g1
I7
I1
I59
I20161123
tp440
I40655
s(g1
I5
I1
I65
I20161110
tp441
I40198
s(g1
I7
I2
I55
I20161123
tp442
I40751
s(g1
I7
I2
I26
I20161123
tp443
I40722
s(g1
I5
I1
I76
I20161110
tp444
I40209
s(g1
I7
I5
I72
I20161123
tp445
I40499
s(g1
I7
I1
I70
I20161123
tp446
I40666
s(g1
I5
I4
I79
I20161110
tp447
I40078
s(g1
I5
I1
I32
I20161110
tp448
I40165
s(g1
I7
I5
I79
I20161123
tp449
I40506
s(g1
I6
I1
I82
I20161122
tp450
I40354
s(g1
I7
I1
I94
I20161123
tp451
I40690
s(g1
I6
I1
I43
I20161122
tp452
I40315
s(g1
I5
I1
I31
I20161110
tp453
I40164
s(g1
I5
I1
I56
I20161110
tp454
I40189
s(g1
I7
I2
I63
I20161123
tp455
I40759
s(g1
I5
I4
I100
I20161110
tp456
I40099
s(g1
I7
I2
I71
I20161123
tp457
I40767
s(g1
I7
I2
I45
I20161123
tp458
I40741
s(g1
I7
I1
I16
I20161123
tp459
I40612
s(g1
I6
I1
I1
I20161122
tp460
I40273
s(g1
I7
I5
I82
I20161123
tp461
I40509
s(g1
I5
I5
I19
I20161110
tp462
I40123
s(g1
I6
I1
I25
I20161122
tp463
I40297
s(g1
I5
I5
I7
I20161110
tp464
I40111
s(g1
I6
I1
I88
I20161122
tp465
I40360
s(g1
I7
I1
I37
I20161123
tp466
I40633
s(g1
I7
I5
I91
I20161123
tp467
I40518
s(g1
I5
I1
I78
I20161110
tp468
I40211
s(g1
I7
I6
I1
I20161123
tp469
I40528
s(g1
I7
I5
I57
I20161123
tp470
I40484
s(g1
I5
I2
I5
I20161110
tp471
I40239
s(g1
I7
I6
I68
I20161123
tp472
I40595
s(g1
I7
I2
I22
I20161123
tp473
I40718
s(g1
I6
I2
I29
I20161122
tp474
I40406
s(g1
I7
I1
I72
I20161123
tp475
I40668
s(g1
I5
I4
I53
I20161110
tp476
I40052
s(g1
I5
I1
I8
I20161110
tp477
I40141
s(g1
I7
I5
I30
I20161123
tp478
I40457
s(g1
I5
I4
I94
I20161110
tp479
I40093
s(g1
I6
I1
I93
I20161122
tp480
I40365
s(g1
I7
I5
I83
I20161123
tp481
I40510
s(g1
I5
I4
I76
I20161110
tp482
I40075
s(g1
I7
I5
I43
I20161123
tp483
I40470
s(g1
I7
I6
I10
I20161123
tp484
I40537
s(g1
I7
I2
I4
I20161123
tp485
I40700
s(g1
I5
I4
I40
I20161110
tp486
I40039
s(g1
I7
I5
I68
I20161123
tp487
I40495
s(g1
I7
I2
I28
I20161123
tp488
I40724
s(g1
I6
I2
I39
I20161122
tp489
I40416
s(g1
I6
I1
I7
I20161122
tp490
I40279
s(g1
I6
I1
I70
I20161122
tp491
I40342
s(g1
I5
I4
I67
I20161110
tp492
I40066
s(g1
I7
I6
I55
I20161123
tp493
I40582
s(g1
I7
I1
I33
I20161123
tp494
I40629
s(g1
I5
I5
I15
I20161110
tp495
I40119
s(g1
I7
I1
I87
I20161123
tp496
I40683
s(g1
I7
I2
I20
I20161123
tp497
I40716
s(g1
I7
I1
I62
I20161123
tp498
I40658
s(g1
I6
I1
I75
I20161122
tp499
I40347
s(g1
I5
I4
I93
I20161110
tp500
I40092
s(g1
I5
I1
I21
I20161110
tp501
I40154
s(g1
I7
I5
I24
I20161123
tp502
I40451
s(g1
I5
I4
I4
I20161110
tp503
I40003
s(g1
I5
I5
I20
I20161110
tp504
I40124
s(g1
I7
I6
I37
I20161123
tp505
I40564
s(g1
I7
I5
I93
I20161123
tp506
I40520
s(g1
I5
I5
I8
I20161110
tp507
I40112
s(g1
I5
I1
I25
I20161110
tp508
I40158
s(g1
I7
I2
I50
I20161123
tp509
I40746
s(g1
I7
I1
I43
I20161123
tp510
I40639
s(g1
I7
I1
I47
I20161123
tp511
I40643
s(g1
I7
I2
I10
I20161123
tp512
I40706
s(g1
I6
I2
I17
I20161122
tp513
I40394
s(g1
I5
I2
I31
I20161110
tp514
I40265
s(g1
I7
I2
I35
I20161123
tp515
I40731
s(g1
I7
I1
I12
I20161123
tp516
I40608
s(g1
I7
I5
I50
I20161123
tp517
I40477
s(g1
I5
I1
I26
I20161110
tp518
I40159
s(g1
I5
I1
I55
I20161110
tp519
I40188
s(g1
I6
I1
I66
I20161122
tp520
I40338
s(g1
I5
I4
I60
I20161110
tp521
I40059
s(g1
I6
I1
I91
I20161122
tp522
I40363
s(g1
I7
I5
I25
I20161123
tp523
I40452
s(g1
I5
I2
I37
I20161110
tp524
I40271
s(g1
I7
I2
I14
I20161123
tp525
I40710
s(g1
I7
I1
I35
I20161123
tp526
I40631
s(g1
I6
I2
I20
I20161122
tp527
I40397
s(g1
I7
I6
I60
I20161123
tp528
I40587
s(g1
I6
I1
I8
I20161122
tp529
I40280
s(g1
I7
I1
I40
I20161123
tp530
I40636
s(g1
I5
I4
I51
I20161110
tp531
I40050
s(g1
I7
I6
I20
I20161123
tp532
I40547
s(g1
I6
I2
I15
I20161122
tp533
I40392
s(g1
I5
I4
I74
I20161110
tp534
I40073
s(g1
I5
I4
I96
I20161110
tp535
I40095
s(g1
I5
I4
I11
I20161110
tp536
I40010
s(g1
I6
I1
I48
I20161122
tp537
I40320
s(g1
I6
I1
I73
I20161122
tp538
I40345
s(g1
I6
I1
I72
I20161122
tp539
I40344
s(g1
I7
I1
I85
I20161123
tp540
I40681
s(g1
I6
I1
I97
I20161122
tp541
I40369
s(g1
I6
I2
I6
I20161122
tp542
I40383
s(g1
I6
I1
I101
I20161122
tp543
I40373
s(g1
I7
I1
I64
I20161123
tp544
I40660
s(g1
I6
I2
I36
I20161122
tp545
I40413
s(g1
I7
I6
I49
I20161123
tp546
I40576
s(g1
I5
I4
I66
I20161110
tp547
I40065
s(g1
I7
I5
I54
I20161123
tp548
I40481
s(g1
I7
I1
I45
I20161123
tp549
I40641
s(g1
I5
I4
I12
I20161110
tp550
I40011
s(g1
I7
I6
I23
I20161123
tp551
I40550
s(g1
I6
I1
I64
I20161122
tp552
I40336
s(g1
I7
I1
I77
I20161123
tp553
I40673
s(g1
I7
I5
I67
I20161123
tp554
I40494
s(g1
I7
I6
I34
I20161123
tp555
I40561
s(g1
I5
I1
I81
I20161110
tp556
I40214
s(g1
I7
I6
I58
I20161123
tp557
I40585
s(g1
I6
I2
I22
I20161122
tp558
I40399
s(g1
I6
I1
I30
I20161122
tp559
I40302
s(g1
I5
I1
I53
I20161110
tp560
I40186
s(g1
I5
I4
I27
I20161110
tp561
I40026
s(g1
I7
I6
I9
I20161123
tp562
I40536
s(g1
I6
I1
I54
I20161122
tp563
I40326
s(g1
I5
I1
I13
I20161110
tp564
I40146
s(g1
I6
I1
I79
I20161122
tp565
I40351
s(g1
I5
I1
I35
I20161110
tp566
I40168
s(g1
I7
I6
I29
I20161123
tp567
I40556
s(g1
I7
I5
I21
I20161123
tp568
I40448
s(g1
I7
I5
I77
I20161123
tp569
I40504
s(g1
I7
I1
I11
I20161123
tp570
I40607
s(g1
I5
I1
I73
I20161110
tp571
I40206
s(g1
I7
I2
I44
I20161123
tp572
I40740
s(g1
I7
I2
I61
I20161123
tp573
I40757
s(g1
I7
I5
I88
I20161123
tp574
I40515
s(g1
I5
I4
I82
I20161110
tp575
I40081
s(g1
I5
I1
I45
I20161110
tp576
I40178
s(g1
I7
I5
I48
I20161123
tp577
I40475
s(g1
I7
I2
I69
I20161123
tp578
I40765
s(g1
I5
I5
I22
I20161110
tp579
I40126
s(g1
I6
I1
I46
I20161122
tp580
I40318
s(g1
I6
I1
I94
I20161122
tp581
I40366
s(g1
I5
I4
I6
I20161110
tp582
I40005
s(g1
I5
I1
I70
I20161110
tp583
I40203
s(g1
I7
I6
I26
I20161123
tp584
I40553
s(g1
I7
I1
I3
I20161123
tp585
I40599
s(g1
I6
I2
I37
I20161122
tp586
I40414
s(g1
I5
I1
I94
I20161110
tp587
I40227
s(g1
I5
I2
I8
I20161110
tp588
I40242
s(g1
I7
I1
I27
I20161123
tp589
I40623
s(g1
I7
I5
I74
I20161123
tp590
I40501
s(g1
I5
I1
I50
I20161110
tp591
I40183
s(g1
I5
I4
I43
I20161110
tp592
I40042
s(g1
I7
I1
I44
I20161123
tp593
I40640
s(g1
I7
I5
I34
I20161123
tp594
I40461
s(g1
I5
I1
I29
I20161110
tp595
I40162
s(g1
I7
I6
I3
I20161123
tp596
I40530
s(g1
I6
I1
I104
I20161122
tp597
I40376
s(g1
I7
I1
I53
I20161123
tp598
I40649
s(g1
I7
I2
I31
I20161123
tp599
I40727
s(g1
I5
I4
I81
I20161110
tp600
I40080
s(g1
I5
I1
I1
I20161110
tp601
I40134
s(g1
I7
I1
I96
I20161123
tp602
I40692
s(g1
I7
I6
I11
I20161123
tp603
I40538
s(g1
I5
I2
I26
I20161110
tp604
I40260
s(g1
I5
I4
I10
I20161110
tp605
I40009
s(g1
I5
I4
I32
I20161110
tp606
I40031
s(g1
I7
I6
I24
I20161123
tp607
I40551
s(g1
I7
I6
I44
I20161123
tp608
I40571
s(g1
I5
I4
I98
I20161110
tp609
I40097
s(g1
I5
I4
I56
I20161110
tp610
I40055
s(g1
I5
I4
I44
I20161110
tp611
I40043
s(g1
I6
I1
I33
I20161122
tp612
I40305
s(g1
I6
I1
I23
I20161122
tp613
I40295
s(g1
I6
I1
I96
I20161122
tp614
I40368
s(g1
I5
I2
I25
I20161110
tp615
I40259
s(g1
I6
I1
I57
I20161122
tp616
I40329
s(g1
I5
I1
I22
I20161110
tp617
I40155
s(g1
I6
I2
I24
I20161122
tp618
I40401
s(g1
I5
I1
I44
I20161110
tp619
I40177
s(g1
I7
I2
I13
I20161123
tp620
I40709
s(g1
I7
I1
I5
I20161123
tp621
I40601
s(g1
I7
I5
I59
I20161123
tp622
I40486
s(g1
I5
I2
I7
I20161110
tp623
I40241
s(g1
I5
I4
I47
I20161110
tp624
I40046
s(g1
I7
I2
I32
I20161123
tp625
I40728
s(g1
I5
I4
I7
I20161110
tp626
I40006
s(g1
I7
I5
I84
I20161123
tp627
I40511
s(g1
I7
I2
I43
I20161123
tp628
I40739
s(g1
I5
I4
I59
I20161110
tp629
I40058
s(g1
I6
I1
I86
I20161122
tp630
I40358
s(g1
I6
I1
I24
I20161122
tp631
I40296
s(g1
I5
I1
I79
I20161110
tp632
I40212
s(g1
I5
I1
I101
I20161110
tp633
I40234
s(g1
I5
I1
I14
I20161110
tp634
I40147
s(g1
I5
I1
I17
I20161110
tp635
I40150
s(g1
I7
I5
I51
I20161123
tp636
I40478
s(g1
I7
I5
I11
I20161123
tp637
I40438
s(g1
I6
I2
I47
I20161122
tp638
I40424
s(g1
I6
I1
I15
I20161122
tp639
I40287
s(g1
I7
I5
I16
I20161123
tp640
I40443
s(g1
I6
I1
I78
I20161122
tp641
I40350
s(g1
I7
I1
I90
I20161123
tp642
I40686
s(g1
I6
I1
I39
I20161122
tp643
I40311
s(g1
I6
I1
I102
I20161122
tp644
I40374
s(g1
I7
I6
I53
I20161123
tp645
I40580
s(g1
I7
I5
I45
I20161123
tp646
I40472
s(g1
I5
I5
I13
I20161110
tp647
I40117
s(g1
I7
I5
I5
I20161123
tp648
I40432
s(g1
I6
I1
I17
I20161122
tp649
I40289
s(g1
I7
I5
I58
I20161123
tp650
I40485
s(g1
I7
I2
I12
I20161123
tp651
I40708
s(g1
I7
I6
I64
I20161123
tp652
I40591
s(g1
I6
I2
I33
I20161122
tp653
I40410
s(g1
I5
I4
I62
I20161110
tp654
I40061
s(g1
I6
I1
I6
I20161122
tp655
I40278
s(g1
I5
I4
I101
I20161110
tp656
I40100
s(g1
I5
I4
I3
I20161110
tp657
I40002
s(g1
I5
I5
I17
I20161110
tp658
I40121
s(g1
I5
I1
I95
I20161110
tp659
I40228
s(g1
I7
I6
I45
I20161123
tp660
I40572
s(g1
I5
I1
I30
I20161110
tp661
I40163
s(g1
I7
I1
I91
I20161123
tp662
I40687
s(g1
I5
I2
I14
I20161110
tp663
I40248
s(g1
I7
I5
I61
I20161123
tp664
I40488
s(g1
I5
I2
I32
I20161110
tp665
I40266
s(g1
I7
I1
I51
I20161123
tp666
I40647
s(g1
I7
I2
I18
I20161123
tp667
I40714
s(g1
I6
I2
I25
I20161122
tp668
I40402
s(g1
I7
I6
I12
I20161123
tp669
I40539
s(g1
I7
I5
I98
I20161123
tp670
I40525
s(g1
I6
I2
I49
I20161122
tp671
I40426
s(g1
I7
I5
I18
I20161123
tp672
I40445
s(g1
I6
I1
I89
I20161122
tp673
I40361
s(g1
I7
I6
I51
I20161123
tp674
I40578
s(g1
I7
I2
I33
I20161123
tp675
I40729
s(g1
I5
I2
I17
I20161110
tp676
I40251
s(g1
I7
I5
I87
I20161123
tp677
I40514
s(g1
I7
I6
I28
I20161123
tp678
I40555
s(g1
I5
I5
I4
I20161110
tp679
I40108
s(g1
I6
I1
I56
I20161122
tp680
I40328
s(g1
I7
I1
I69
I20161123
tp681
I40665
s(g1
I5
I4
I77
I20161110
tp682
I40076
s(g1
I5
I1
I5
I20161110
tp683
I40138
s(g1
I5
I1
I46
I20161110
tp684
I40179
s(g1
I7
I6
I43
I20161123
tp685
I40570
s(g1
I6
I1
I80
I20161122
tp686
I40352
s(g1
I7
I1
I93
I20161123
tp687
I40689
s(g1
I6
I1
I105
I20161122
tp688
I40377
s(g1
I5
I2
I30
I20161110
tp689
I40264
s(g1
I7
I6
I50
I20161123
tp690
I40577
s(g1
I6
I2
I38
I20161122
tp691
I40415
s(g1
I7
I1
I66
I20161123
tp692
I40662
s(g1
I5
I5
I11
I20161110
tp693
I40115
s(g1
I7
I1
I58
I20161123
tp694
I40654
s(g1
I6
I1
I71
I20161122
tp695
I40343
s(g1
I5
I1
I10
I20161110
tp696
I40143
s(g1
I5
I5
I28
I20161110
tp697
I40132
s(g1
I7
I1
I18
I20161123
tp698
I40614
s(g1
I6
I1
I95
I20161122
tp699
I40367
s(g1
I5
I4
I25
I20161110
tp700
I40024
s(g1
I7
I1
I79
I20161123
tp701
I40675
s(g1
I5
I1
I75
I20161110
tp702
I40208
s(g1
I5
I2
I34
I20161110
tp703
I40268
s(g1
I7
I2
I46
I20161123
tp704
I40742
s(g1
I7
I5
I35
I20161123
tp705
I40462
s(g1
I5
I2
I21
I20161110
tp706
I40255
s(g1
I7
I6
I2
I20161123
tp707
I40529
s(g1
I7
I5
I100
I20161123
tp708
I40527
s(g1
I7
I2
I60
I20161123
tp709
I40756
s(g1
I6
I2
I7
I20161122
tp710
I40384
s(g1
I5
I1
I42
I20161110
tp711
I40175
s(g1
I5
I5
I3
I20161110
tp712
I40107
s(g1
I6
I2
I31
I20161122
tp713
I40408
s(g1
I5
I4
I35
I20161110
tp714
I40034
s(g1
I5
I1
I2
I20161110
tp715
I40135
s(g1
I6
I1
I62
I20161122
tp716
I40334
s(g1
I5
I4
I80
I20161110
tp717
I40079
s(g1
I5
I1
I62
I20161110
tp718
I40195
s(g1
I5
I4
I68
I20161110
tp719
I40067
s(g1
I7
I5
I29
I20161123
tp720
I40456
s(g1
I5
I4
I92
I20161110
tp721
I40091
s(g1
I7
I2
I51
I20161123
tp722
I40747
s(g1
I6
I2
I16
I20161122
tp723
I40393
s(g1
I7
I6
I48
I20161123
tp724
I40575
s(g1
I7
I1
I36
I20161123
tp725
I40632
s(g1
I6
I2
I40
I20161122
tp726
I40417
s(g1
I7
I6
I8
I20161123
tp727
I40535
s(g1
I7
I6
I63
I20161123
tp728
I40590
s(g1
I7
I1
I60
I20161123
tp729
I40656
s(g1
I5
I4
I95
I20161110
tp730
I40094
s(g1
I6
I1
I44
I20161122
tp731
I40316
s(g1
I5
I4
I83
I20161110
tp732
I40082
s(g1
I7
I6
I19
I20161123
tp733
I40546
s(g1
I5
I4
I105
I20161110
tp734
I40104
s(g1
I7
I2
I49
I20161123
tp735
I40745
s(g1
I7
I5
I85
I20161123
tp736
I40512
s(g1
I7
I1
I75
I20161123
tp737
I40671
s(g1
I7
I1
I54
I20161123
tp738
I40650
s(g1
I7
I2
I42
I20161123
tp739
I40738
s(g1
I7
I2
I2
I20161123
tp740
I40698
s(g1
I6
I2
I9
I20161122
tp741
I40386
s(g1
I6
I2
I32
I20161122
tp742
I40409
s(g1
I7
I5
I42
I20161123
tp743
I40469
s(g1
I6
I1
I49
I20161122
tp744
I40321
s(g1
I5
I4
I75
I20161110
tp745
I40074
s(g1
I5
I1
I59
I20161110
tp746
I40192
s(g1
I7
I5
I2
I20161123
tp747
I40429
s(g1
I5
I5
I2
I20161110
tp748
I40106
s(g1
I5
I1
I19
I20161110
tp749
I40152
s(g1
I7
I5
I71
I20161123
tp750
I40498
s(g1
I7
I2
I29
I20161123
tp751
I40725
s(g1
I7
I1
I21
I20161123
tp752
I40617
s(g1
I7
I1
I88
I20161123
tp753
I40684
s(g1
I7
I1
I14
I20161123
tp754
I40610
s(g1
I7
I6
I62
I20161123
tp755
I40589
s(g1
I7
I2
I73
I20161123
tp756
I40769
s(g1
I7
I2
I48
I20161123
tp757
I40744
s(g1
I6
I1
I26
I20161122
tp758
I40298
s(g1
I7
I6
I67
I20161123
tp759
I40594
s(g1
I6
I1
I40
I20161122
tp760
I40312
s(g1
I7
I1
I100
I20161123
tp761
I40696
s(g1
I6
I1
I65
I20161122
tp762
I40337
s(g1
I5
I5
I16
I20161110
tp763
I40120
s(g1
I7
I2
I21
I20161123
tp764
I40717
s(g1
I7
I1
I13
I20161123
tp765
I40609
s(g1
I7
I5
I3
I20161123
tp766
I40430
s(g1
I7
I5
I27
I20161123
tp767
I40454
s(g1
I7
I5
I92
I20161123
tp768
I40519
s(g1
I7
I1
I82
I20161123
tp769
I40678
s(g1
I6
I1
I31
I20161122
tp770
I40303
s(g1
I5
I1
I34
I20161110
tp771
I40167
s(g1
I7
I5
I52
I20161123
tp772
I40479
s.