(dp0
(I6
I6
I6
I5
I20161117
I0
tp1
I61344
s(I6
I5
I3
I89
I20161109
I0
tp2
I60686
s(I6
I6
I1
I49
I20161117
I0
tp3
I61812
s(I6
I6
I4
I84
I20161117
I0
tp4
I61219
s(I6
I6
I1
I44
I20161117
I0
tp5
I61807
s(I6
I5
I1
I91
I20161109
I0
tp6
I60490
s(I6
I5
I5
I37
I20161109
I0
tp7
I60134
s(I6
I7
I1
I45
I20161121
I0
tp8
I60740
s(I6
I6
I1
I52
I20161117
I0
tp9
I61815
s(I6
I5
I5
I2
I20161109
I0
tp10
I60099
s(I6
I7
I5
I54
I20161121
I0
tp11
I61613
s(I6
I6
I2
I87
I20161117
I0
tp12
I61953
s(I6
I5
I4
I16
I20161109
I0
tp13
I60015
s(I6
I5
I3
I47
I20161109
I0
tp14
I60644
s(I6
I7
I3
I53
I20161121
I0
tp15
I60980
s(I6
I7
I6
I80
I20161121
I0
tp16
I61745
s(I6
I6
I6
I3
I20161117
I0
tp17
I61342
s(I6
I7
I5
I4
I20161121
I0
tp18
I61563
s(I6
I6
I1
I86
I20161117
I0
tp19
I61849
s(I6
I5
I5
I7
I20161109
I0
tp20
I60104
s(I6
I5
I2
I37
I20161109
I0
tp21
I60534
s(I6
I5
I1
I41
I20161109
I0
tp22
I60440
s(I6
I6
I1
I98
I20161117
I0
tp23
I61861
s(I6
I6
I2
I39
I20161117
I0
tp24
I61905
s(I6
I7
I1
I102
I20161121
I0
tp25
I60797
s(I6
I6
I5
I64
I20161117
I0
tp26
I61302
s(I6
I5
I3
I44
I20161109
I0
tp27
I60641
s(I6
I6
I4
I65
I20161117
I0
tp28
I61200
s(I6
I5
I1
I59
I20161109
I0
tp29
I60458
s(I6
I6
I4
I34
I20161117
I0
tp30
I61169
s(I6
I7
I1
I90
I20161121
I0
tp31
I60785
s(I6
I5
I1
I42
I20161109
I0
tp32
I60441
s(I6
I7
I4
I5
I20161121
I0
tp33
I61033
s(I6
I7
I6
I69
I20161121
I0
tp34
I61734
s(I6
I5
I4
I84
I20161109
I0
tp35
I60083
s(I6
I6
I3
I77
I20161117
I0
tp36
I62047
s(I6
I5
I3
I41
I20161109
I0
tp37
I60638
s(I6
I7
I1
I24
I20161121
I0
tp38
I60719
s(I6
I6
I3
I24
I20161117
I0
tp39
I61994
s(I6
I6
I3
I14
I20161117
I0
tp40
I61984
s(I6
I7
I1
I72
I20161121
I0
tp41
I60767
s(I6
I7
I2
I64
I20161121
I0
tp42
I60862
s(I6
I6
I3
I63
I20161117
I0
tp43
I62033
s(I6
I5
I1
I63
I20161109
I0
tp44
I60462
s(I6
I6
I2
I73
I20161117
I0
tp45
I61939
s(I6
I7
I1
I6
I20161121
I0
tp46
I60701
s(I6
I5
I2
I56
I20161109
I0
tp47
I60553
s(I6
I7
I2
I2
I20161121
I0
tp48
I60800
s(I6
I7
I4
I23
I20161121
I0
tp49
I61051
s(I6
I7
I6
I65
I20161121
I0
tp50
I61730
s(I6
I7
I1
I47
I20161121
I0
tp51
I60742
s(I6
I7
I2
I114
I20161121
I0
tp52
I60912
s(I6
I7
I4
I39
I20161121
I0
tp53
I61067
s(I6
I5
I5
I97
I20161109
I0
tp54
I60194
s(I6
I7
I1
I31
I20161121
I0
tp55
I60726
s(I6
I7
I3
I89
I20161121
I0
tp56
I61016
s(I6
I5
I6
I92
I20161109
I0
tp57
I60289
s(I6
I7
I2
I52
I20161121
I0
tp58
I60850
s(I6
I7
I6
I51
I20161121
I0
tp59
I61716
s(I6
I7
I3
I27
I20161121
I0
tp60
I60954
s(I6
I6
I4
I39
I20161117
I0
tp61
I61174
s(I6
I5
I5
I5
I20161109
I0
tp62
I60102
s(I6
I7
I6
I26
I20161121
I0
tp63
I61691
s(I6
I6
I7
I46
I20161117
I0
tp64
I61499
s(I6
I6
I4
I24
I20161117
I0
tp65
I61159
s(I6
I5
I3
I21
I20161109
I0
tp66
I60618
s(I6
I5
I5
I98
I20161109
I0
tp67
I60195
s(I6
I6
I7
I70
I20161117
I0
tp68
I61523
s(I6
I6
I4
I32
I20161117
I0
tp69
I61167
s(I6
I7
I6
I74
I20161121
I0
tp70
I61739
s(I6
I6
I2
I79
I20161117
I0
tp71
I61945
s(I6
I6
I3
I103
I20161117
I0
tp72
I62073
s(I6
I7
I3
I79
I20161121
I0
tp73
I61006
s(I6
I5
I2
I78
I20161109
I0
tp74
I60575
s(I6
I5
I5
I36
I20161109
I0
tp75
I60133
s(I6
I7
I6
I4
I20161121
I0
tp76
I61669
s(I6
I6
I2
I4
I20161117
I0
tp77
I61870
s(I6
I6
I5
I99
I20161117
I0
tp78
I61337
s(I6
I6
I7
I78
I20161117
I0
tp79
I61531
s(I6
I5
I1
I9
I20161109
I0
tp80
I60408
s(I6
I5
I3
I18
I20161109
I0
tp81
I60615
s(I6
I5
I4
I76
I20161109
I0
tp82
I60075
s(I6
I6
I5
I94
I20161117
I0
tp83
I61332
s(I6
I6
I2
I57
I20161117
I0
tp84
I61923
s(I6
I5
I7
I79
I20161109
I0
tp85
I60376
s(I6
I5
I5
I84
I20161109
I0
tp86
I60181
s(I6
I7
I1
I74
I20161121
I0
tp87
I60769
s(I6
I6
I1
I97
I20161117
I0
tp88
I61860
s(I6
I6
I5
I12
I20161117
I0
tp89
I61250
s(I6
I7
I1
I14
I20161121
I0
tp90
I60709
s(I6
I5
I4
I79
I20161109
I0
tp91
I60078
s(I6
I7
I3
I72
I20161121
I0
tp92
I60999
s(I6
I7
I5
I61
I20161121
I0
tp93
I61620
s(I6
I7
I2
I112
I20161121
I0
tp94
I60910
s(I6
I5
I4
I9
I20161109
I0
tp95
I60008
s(I6
I7
I3
I10
I20161121
I0
tp96
I60937
s(I6
I5
I5
I32
I20161109
I0
tp97
I60129
s(I6
I7
I1
I60
I20161121
I0
tp98
I60755
s(I6
I7
I2
I44
I20161121
I0
tp99
I60842
s(I6
I5
I4
I74
I20161109
I0
tp100
I60073
s(I6
I7
I6
I1
I20161121
I0
tp101
I61666
s(I6
I7
I6
I59
I20161121
I0
tp102
I61724
s(I6
I6
I6
I33
I20161117
I0
tp103
I61372
s(I6
I5
I1
I84
I20161109
I0
tp104
I60483
s(I6
I5
I5
I38
I20161109
I0
tp105
I60135
s(I6
I5
I7
I89
I20161109
I0
tp106
I60386
s(I6
I5
I3
I23
I20161109
I0
tp107
I60620
s(I6
I6
I5
I98
I20161117
I0
tp108
I61336
s(I6
I7
I6
I37
I20161121
I0
tp109
I61702
s(I6
I5
I3
I16
I20161109
I0
tp110
I60613
s(I6
I7
I3
I13
I20161121
I0
tp111
I60940
s(I6
I6
I4
I77
I20161117
I0
tp112
I61212
s(I6
I6
I7
I44
I20161117
I0
tp113
I61497
s(I6
I6
I1
I47
I20161117
I0
tp114
I61810
s(I6
I6
I4
I82
I20161117
I0
tp115
I61217
s(I6
I6
I7
I101
I20161117
I0
tp116
I61554
s(I6
I6
I3
I40
I20161117
I0
tp117
I62010
s(I6
I5
I3
I94
I20161109
I0
tp118
I60691
s(I6
I7
I4
I96
I20161121
I0
tp119
I61124
s(I6
I7
I6
I89
I20161121
I0
tp120
I61754
s(I6
I6
I3
I73
I20161117
I0
tp121
I62043
s(I6
I5
I3
I53
I20161109
I0
tp122
I60650
s(I6
I5
I7
I43
I20161109
I0
tp123
I60340
s(I6
I7
I4
I46
I20161121
I0
tp124
I61074
s(I6
I7
I6
I27
I20161121
I0
tp125
I61692
s(I6
I7
I3
I51
I20161121
I0
tp126
I60978
s(I6
I5
I5
I73
I20161109
I0
tp127
I60170
s(I6
I7
I2
I97
I20161121
I0
tp128
I60895
s(I6
I5
I6
I18
I20161109
I0
tp129
I60215
s(I6
I7
I3
I99
I20161121
I0
tp130
I61026
s(I6
I6
I5
I100
I20161117
I0
tp131
I61338
s(I6
I6
I6
I31
I20161117
I0
tp132
I61370
s(I6
I7
I2
I81
I20161121
I0
tp133
I60879
s(I6
I6
I2
I19
I20161117
I0
tp134
I61885
s(I6
I5
I7
I85
I20161109
I0
tp135
I60382
s(I6
I7
I1
I96
I20161121
I0
tp136
I60791
s(I6
I7
I6
I48
I20161121
I0
tp137
I61713
s(I6
I5
I7
I98
I20161109
I0
tp138
I60395
s(I6
I7
I3
I45
I20161121
I0
tp139
I60972
s(I6
I6
I5
I47
I20161117
I0
tp140
I61285
s(I6
I6
I1
I93
I20161117
I0
tp141
I61856
s(I6
I7
I5
I79
I20161121
I0
tp142
I61638
s(I6
I7
I2
I19
I20161121
I0
tp143
I60817
s(I6
I6
I5
I55
I20161117
I0
tp144
I61293
s(I6
I5
I4
I5
I20161109
I0
tp145
I60004
s(I6
I7
I1
I62
I20161121
I0
tp146
I60757
s(I6
I5
I1
I85
I20161109
I0
tp147
I60484
s(I6
I6
I2
I18
I20161117
I0
tp148
I61884
s(I6
I7
I5
I11
I20161121
I0
tp149
I61570
s(I6
I6
I7
I97
I20161117
I0
tp150
I61550
s(I6
I5
I3
I67
I20161109
I0
tp151
I60664
s(I6
I5
I6
I22
I20161109
I0
tp152
I60219
s(I6
I7
I2
I26
I20161121
I0
tp153
I60824
s(I6
I6
I4
I35
I20161117
I0
tp154
I61170
s(I6
I5
I2
I63
I20161109
I0
tp155
I60560
s(I6
I5
I6
I47
I20161109
I0
tp156
I60244
s(I6
I6
I4
I72
I20161117
I0
tp157
I61207
s(I6
I7
I6
I20
I20161121
I0
tp158
I61685
s(I6
I6
I7
I79
I20161117
I0
tp159
I61532
s(I6
I6
I7
I100
I20161117
I0
tp160
I61553
s(I6
I5
I1
I86
I20161109
I0
tp161
I60485
s(I6
I5
I6
I4
I20161109
I0
tp162
I60201
s(I6
I5
I2
I82
I20161109
I0
tp163
I60579
s(I6
I6
I6
I91
I20161117
I0
tp164
I61430
s(I6
I5
I3
I51
I20161109
I0
tp165
I60648
s(I6
I6
I6
I76
I20161117
I0
tp166
I61415
s(I6
I5
I1
I16
I20161109
I0
tp167
I60415
s(I6
I5
I6
I95
I20161109
I0
tp168
I60292
s(I6
I7
I3
I94
I20161121
I0
tp169
I61021
s(I6
I5
I3
I98
I20161109
I0
tp170
I60695
s(I6
I6
I6
I24
I20161117
I0
tp171
I61363
s(I6
I5
I1
I83
I20161109
I0
tp172
I60482
s(I6
I7
I2
I120
I20161121
I0
tp173
I60918
s(I6
I7
I3
I18
I20161121
I0
tp174
I60945
s(I6
I6
I5
I66
I20161117
I0
tp175
I61304
s(I6
I6
I2
I61
I20161117
I0
tp176
I61927
s(I6
I5
I3
I48
I20161109
I0
tp177
I60645
s(I6
I7
I2
I58
I20161121
I0
tp178
I60856
s(I6
I5
I2
I77
I20161109
I0
tp179
I60574
s(I6
I7
I5
I94
I20161121
I0
tp180
I61653
s(I6
I6
I5
I45
I20161117
I0
tp181
I61283
s(I6
I5
I4
I31
I20161109
I0
tp182
I60030
s(I6
I6
I3
I74
I20161117
I0
tp183
I62044
s(I6
I7
I3
I12
I20161121
I0
tp184
I60939
s(I6
I7
I4
I52
I20161121
I0
tp185
I61080
s(I6
I7
I6
I13
I20161121
I0
tp186
I61678
s(I6
I5
I2
I84
I20161109
I0
tp187
I60581
s(I6
I7
I3
I37
I20161121
I0
tp188
I60964
s(I6
I5
I5
I99
I20161109
I0
tp189
I60196
s(I6
I7
I5
I87
I20161121
I0
tp190
I61646
s(I6
I5
I6
I53
I20161109
I0
tp191
I60250
s(I6
I6
I7
I41
I20161117
I0
tp192
I61494
s(I6
I5
I7
I76
I20161109
I0
tp193
I60373
s(I6
I5
I2
I7
I20161109
I0
tp194
I60504
s(I6
I7
I5
I21
I20161121
I0
tp195
I61580
s(I6
I7
I4
I2
I20161121
I0
tp196
I61030
s(I6
I6
I1
I91
I20161117
I0
tp197
I61854
s(I6
I7
I5
I37
I20161121
I0
tp198
I61596
s(I6
I6
I6
I61
I20161117
I0
tp199
I61400
s(I6
I7
I2
I61
I20161121
I0
tp200
I60859
s(I6
I6
I6
I86
I20161117
I0
tp201
I61425
s(I6
I5
I2
I34
I20161109
I0
tp202
I60531
s(I6
I5
I6
I48
I20161109
I0
tp203
I60245
s(I6
I5
I1
I18
I20161109
I0
tp204
I60417
s(I6
I6
I5
I23
I20161117
I0
tp205
I61261
s(I6
I6
I1
I85
I20161117
I0
tp206
I61848
s(I6
I6
I5
I56
I20161117
I0
tp207
I61294
s(I6
I6
I4
I94
I20161117
I0
tp208
I61229
s(I6
I5
I1
I11
I20161109
I0
tp209
I60410
s(I6
I7
I2
I95
I20161121
I0
tp210
I60893
s(I6
I7
I5
I55
I20161121
I0
tp211
I61614
s(I6
I5
I1
I28
I20161109
I0
tp212
I60427
s(I6
I7
I2
I43
I20161121
I0
tp213
I60841
s(I6
I7
I4
I65
I20161121
I0
tp214
I61093
s(I6
I5
I3
I20
I20161109
I0
tp215
I60617
s(I6
I7
I3
I16
I20161121
I0
tp216
I60943
s(I6
I7
I2
I27
I20161121
I0
tp217
I60825
s(I6
I6
I7
I68
I20161117
I0
tp218
I61521
s(I6
I5
I5
I85
I20161109
I0
tp219
I60182
s(I6
I7
I3
I64
I20161121
I0
tp220
I60991
s(I6
I7
I4
I95
I20161121
I0
tp221
I61123
s(I6
I6
I7
I51
I20161117
I0
tp222
I61504
s(I6
I5
I5
I23
I20161109
I0
tp223
I60120
s(I6
I7
I1
I103
I20161121
I0
tp224
I60798
s(I6
I7
I3
I2
I20161121
I0
tp225
I60929
s(I6
I7
I5
I104
I20161121
I0
tp226
I61663
s(I6
I7
I4
I54
I20161121
I0
tp227
I61082
s(I6
I6
I1
I65
I20161117
I0
tp228
I61828
s(I6
I7
I2
I36
I20161121
I0
tp229
I60834
s(I6
I6
I1
I89
I20161117
I0
tp230
I61852
s(I6
I7
I4
I70
I20161121
I0
tp231
I61098
s(I6
I7
I5
I52
I20161121
I0
tp232
I61611
s(I6
I6
I5
I59
I20161117
I0
tp233
I61297
s(I6
I6
I2
I104
I20161117
I0
tp234
I61970
s(I6
I5
I5
I74
I20161109
I0
tp235
I60171
s(I6
I7
I4
I4
I20161121
I0
tp236
I61032
s(I6
I6
I5
I13
I20161117
I0
tp237
I61251
s(I6
I6
I7
I89
I20161117
I0
tp238
I61542
s(I6
I5
I6
I17
I20161109
I0
tp239
I60214
s(I6
I6
I5
I22
I20161117
I0
tp240
I61260
s(I6
I5
I6
I43
I20161109
I0
tp241
I60240
s(I6
I5
I7
I90
I20161109
I0
tp242
I60387
s(I6
I5
I5
I67
I20161109
I0
tp243
I60164
s(I6
I6
I4
I14
I20161117
I0
tp244
I61149
s(I6
I5
I4
I38
I20161109
I0
tp245
I60037
s(I6
I5
I1
I6
I20161109
I0
tp246
I60405
s(I6
I6
I7
I9
I20161117
I0
tp247
I61462
s(I6
I5
I3
I42
I20161109
I0
tp248
I60639
s(I6
I6
I3
I6
I20161117
I0
tp249
I61976
s(I6
I6
I6
I107
I20161117
I0
tp250
I61446
s(I6
I5
I2
I39
I20161109
I0
tp251
I60536
s(I6
I5
I1
I47
I20161109
I0
tp252
I60446
s(I6
I7
I5
I86
I20161121
I0
tp253
I61645
s(I6
I6
I6
I72
I20161117
I0
tp254
I61411
s(I6
I5
I2
I8
I20161109
I0
tp255
I60505
s(I6
I6
I1
I83
I20161117
I0
tp256
I61846
s(I6
I7
I2
I87
I20161121
I0
tp257
I60885
s(I6
I5
I1
I36
I20161109
I0
tp258
I60435
s(I6
I7
I5
I20
I20161121
I0
tp259
I61579
s(I6
I7
I2
I25
I20161121
I0
tp260
I60823
s(I6
I7
I6
I52
I20161121
I0
tp261
I61717
s(I6
I6
I5
I24
I20161117
I0
tp262
I61262
s(I6
I7
I2
I73
I20161121
I0
tp263
I60871
s(I6
I7
I5
I13
I20161121
I0
tp264
I61572
s(I6
I5
I2
I81
I20161109
I0
tp265
I60578
s(I6
I7
I4
I87
I20161121
I0
tp266
I61115
s(I6
I6
I4
I87
I20161117
I0
tp267
I61222
s(I6
I6
I1
I9
I20161117
I0
tp268
I61772
s(I6
I5
I4
I81
I20161109
I0
tp269
I60080
s(I6
I6
I7
I86
I20161117
I0
tp270
I61539
s(I6
I7
I4
I21
I20161121
I0
tp271
I61049
s(I6
I7
I5
I19
I20161121
I0
tp272
I61578
s(I6
I6
I7
I53
I20161117
I0
tp273
I61506
s(I6
I6
I3
I87
I20161117
I0
tp274
I62057
s(I6
I5
I3
I31
I20161109
I0
tp275
I60628
s(I6
I6
I7
I59
I20161117
I0
tp276
I61512
s(I6
I7
I4
I37
I20161121
I0
tp277
I61065
s(I6
I6
I7
I45
I20161117
I0
tp278
I61498
s(I6
I7
I1
I29
I20161121
I0
tp279
I60724
s(I6
I5
I6
I41
I20161109
I0
tp280
I60238
s(I6
I7
I3
I52
I20161121
I0
tp281
I60979
s(I6
I6
I7
I19
I20161117
I0
tp282
I61472
s(I6
I6
I7
I11
I20161117
I0
tp283
I61464
s(I6
I5
I4
I37
I20161109
I0
tp284
I60036
s(I6
I6
I6
I82
I20161117
I0
tp285
I61421
s(I6
I6
I7
I84
I20161117
I0
tp286
I61537
s(I6
I5
I5
I100
I20161109
I0
tp287
I60197
s(I6
I5
I1
I14
I20161109
I0
tp288
I60413
s(I6
I6
I5
I27
I20161117
I0
tp289
I61265
s(I6
I5
I7
I4
I20161109
I0
tp290
I60301
s(I6
I7
I4
I55
I20161121
I0
tp291
I61083
s(I6
I6
I5
I49
I20161117
I0
tp292
I61287
s(I6
I7
I6
I97
I20161121
I0
tp293
I61762
s(I6
I7
I1
I15
I20161121
I0
tp294
I60710
s(I6
I6
I5
I89
I20161117
I0
tp295
I61327
s(I6
I7
I3
I73
I20161121
I0
tp296
I61000
s(I6
I5
I7
I61
I20161109
I0
tp297
I60358
s(I6
I7
I5
I80
I20161121
I0
tp298
I61639
s(I6
I6
I3
I97
I20161117
I0
tp299
I62067
s(I6
I5
I7
I30
I20161109
I0
tp300
I60327
s(I6
I5
I4
I85
I20161109
I0
tp301
I60084
s(I6
I7
I5
I96
I20161121
I0
tp302
I61655
s(I6
I6
I5
I30
I20161117
I0
tp303
I61268
s(I6
I5
I1
I24
I20161109
I0
tp304
I60423
s(I6
I5
I2
I58
I20161109
I0
tp305
I60555
s(I6
I7
I6
I75
I20161121
I0
tp306
I61740
s(I6
I5
I2
I33
I20161109
I0
tp307
I60530
s(I6
I7
I1
I61
I20161121
I0
tp308
I60756
s(I6
I7
I5
I38
I20161121
I0
tp309
I61597
s(I6
I7
I6
I58
I20161121
I0
tp310
I61723
s(I6
I5
I7
I77
I20161109
I0
tp311
I60374
s(I6
I7
I4
I12
I20161121
I0
tp312
I61040
s(I6
I6
I2
I63
I20161117
I0
tp313
I61929
s(I6
I5
I2
I40
I20161109
I0
tp314
I60537
s(I6
I6
I3
I45
I20161117
I0
tp315
I62015
s(I6
I6
I7
I55
I20161117
I0
tp316
I61508
s(I6
I5
I1
I4
I20161109
I0
tp317
I60403
s(I6
I7
I2
I3
I20161121
I0
tp318
I60801
s(I6
I6
I6
I63
I20161117
I0
tp319
I61402
s(I6
I7
I6
I47
I20161121
I0
tp320
I61712
s(I6
I7
I6
I36
I20161121
I0
tp321
I61701
s(I6
I6
I1
I100
I20161117
I0
tp322
I61863
s(I6
I5
I3
I76
I20161109
I0
tp323
I60673
s(I6
I5
I4
I63
I20161109
I0
tp324
I60062
s(I6
I6
I1
I31
I20161117
I0
tp325
I61794
s(I6
I5
I5
I86
I20161109
I0
tp326
I60183
s(I6
I7
I2
I129
I20161121
I0
tp327
I60927
s(I6
I6
I1
I41
I20161117
I0
tp328
I61804
s(I6
I5
I7
I27
I20161109
I0
tp329
I60324
s(I6
I6
I4
I41
I20161117
I0
tp330
I61176
s(I6
I6
I3
I80
I20161117
I0
tp331
I62050
s(I6
I6
I1
I99
I20161117
I0
tp332
I61862
s(I6
I5
I4
I58
I20161109
I0
tp333
I60057
s(I6
I6
I4
I10
I20161117
I0
tp334
I61145
s(I6
I6
I5
I75
I20161117
I0
tp335
I61313
s(I6
I5
I7
I28
I20161109
I0
tp336
I60325
s(I6
I6
I7
I13
I20161117
I0
tp337
I61466
s(I6
I6
I3
I95
I20161117
I0
tp338
I62065
s(I6
I5
I6
I9
I20161109
I0
tp339
I60206
s(I6
I5
I1
I72
I20161109
I0
tp340
I60471
s(I6
I6
I1
I103
I20161117
I0
tp341
I61866
s(I6
I7
I1
I44
I20161121
I0
tp342
I60739
s(I6
I7
I2
I80
I20161121
I0
tp343
I60878
s(I6
I5
I7
I41
I20161109
I0
tp344
I60338
s(I6
I7
I4
I89
I20161121
I0
tp345
I61117
s(I6
I6
I7
I39
I20161117
I0
tp346
I61492
s(I6
I7
I1
I28
I20161121
I0
tp347
I60723
s(I6
I7
I4
I105
I20161121
I0
tp348
I61133
s(I6
I5
I7
I18
I20161109
I0
tp349
I60315
s(I6
I7
I4
I29
I20161121
I0
tp350
I61057
s(I6
I6
I5
I95
I20161117
I0
tp351
I61333
s(I6
I7
I6
I91
I20161121
I0
tp352
I61756
s(I6
I7
I1
I37
I20161121
I0
tp353
I60732
s(I6
I5
I2
I46
I20161109
I0
tp354
I60543
s(I6
I7
I5
I46
I20161121
I0
tp355
I61605
s(I6
I5
I6
I42
I20161109
I0
tp356
I60239
s(I6
I6
I1
I10
I20161117
I0
tp357
I61773
s(I6
I7
I6
I21
I20161121
I0
tp358
I61686
s(I6
I6
I5
I57
I20161117
I0
tp359
I61295
s(I6
I7
I3
I61
I20161121
I0
tp360
I60988
s(I6
I6
I4
I80
I20161117
I0
tp361
I61215
s(I6
I5
I2
I15
I20161109
I0
tp362
I60512
s(I6
I6
I1
I5
I20161117
I0
tp363
I61768
s(I6
I7
I5
I60
I20161121
I0
tp364
I61619
s(I6
I7
I6
I44
I20161121
I0
tp365
I61709
s(I6
I5
I5
I57
I20161109
I0
tp366
I60154
s(I6
I6
I3
I98
I20161117
I0
tp367
I62068
s(I6
I5
I6
I90
I20161109
I0
tp368
I60287
s(I6
I5
I6
I20
I20161109
I0
tp369
I60217
s(I6
I7
I6
I30
I20161121
I0
tp370
I61695
s(I6
I6
I7
I23
I20161117
I0
tp371
I61476
s(I6
I6
I6
I45
I20161117
I0
tp372
I61384
s(I6
I7
I3
I19
I20161121
I0
tp373
I60946
s(I6
I6
I2
I65
I20161117
I0
tp374
I61931
s(I6
I5
I6
I89
I20161109
I0
tp375
I60286
s(I6
I5
I5
I13
I20161109
I0
tp376
I60110
s(I6
I6
I6
I55
I20161117
I0
tp377
I61394
s(I6
I5
I7
I47
I20161109
I0
tp378
I60344
s(I6
I6
I1
I28
I20161117
I0
tp379
I61791
s(I6
I6
I6
I6
I20161117
I0
tp380
I61345
s(I6
I6
I5
I90
I20161117
I0
tp381
I61328
s(I6
I6
I6
I20
I20161117
I0
tp382
I61359
s(I6
I5
I7
I8
I20161109
I0
tp383
I60305
s(I6
I6
I1
I63
I20161117
I0
tp384
I61826
s(I6
I6
I5
I53
I20161117
I0
tp385
I61291
s(I6
I5
I1
I80
I20161109
I0
tp386
I60479
s(I6
I7
I1
I64
I20161121
I0
tp387
I60759
s(I6
I6
I1
I22
I20161117
I0
tp388
I61785
s(I6
I6
I5
I93
I20161117
I0
tp389
I61331
s(I6
I5
I7
I33
I20161109
I0
tp390
I60330
s(I6
I7
I1
I63
I20161121
I0
tp391
I60758
s(I6
I5
I5
I63
I20161109
I0
tp392
I60160
s(I6
I7
I6
I12
I20161121
I0
tp393
I61677
s(I6
I6
I4
I85
I20161117
I0
tp394
I61220
s(I6
I6
I1
I30
I20161117
I0
tp395
I61793
s(I6
I7
I1
I30
I20161121
I0
tp396
I60725
s(I6
I6
I7
I98
I20161117
I0
tp397
I61551
s(I6
I5
I2
I10
I20161109
I0
tp398
I60507
s(I6
I7
I3
I88
I20161121
I0
tp399
I61015
s(I6
I7
I2
I10
I20161121
I0
tp400
I60808
s(I6
I7
I2
I122
I20161121
I0
tp401
I60920
s(I6
I7
I4
I47
I20161121
I0
tp402
I61075
s(I6
I6
I3
I4
I20161117
I0
tp403
I61974
s(I6
I6
I6
I105
I20161117
I0
tp404
I61444
s(I6
I7
I2
I60
I20161121
I0
tp405
I60858
s(I6
I6
I7
I18
I20161117
I0
tp406
I61471
s(I6
I5
I2
I9
I20161109
I0
tp407
I60506
s(I6
I6
I3
I3
I20161117
I0
tp408
I61973
s(I6
I6
I2
I77
I20161117
I0
tp409
I61943
s(I6
I6
I6
I102
I20161117
I0
tp410
I61441
s(I6
I5
I3
I96
I20161109
I0
tp411
I60693
s(I6
I6
I4
I5
I20161117
I0
tp412
I61140
s(I6
I6
I1
I96
I20161117
I0
tp413
I61859
s(I6
I7
I6
I15
I20161121
I0
tp414
I61680
s(I6
I6
I5
I71
I20161117
I0
tp415
I61309
s(I6
I5
I4
I18
I20161109
I0
tp416
I60017
s(I6
I6
I6
I25
I20161117
I0
tp417
I61364
s(I6
I5
I6
I51
I20161109
I0
tp418
I60248
s(I6
I6
I1
I2
I20161117
I0
tp419
I61765
s(I6
I6
I1
I37
I20161117
I0
tp420
I61800
s(I6
I6
I1
I61
I20161117
I0
tp421
I61824
s(I6
I5
I6
I65
I20161109
I0
tp422
I60262
s(I6
I7
I3
I60
I20161121
I0
tp423
I60987
s(I6
I5
I5
I25
I20161109
I0
tp424
I60122
s(I6
I6
I4
I75
I20161117
I0
tp425
I61210
s(I6
I5
I7
I81
I20161109
I0
tp426
I60378
s(I6
I6
I7
I76
I20161117
I0
tp427
I61529
s(I6
I5
I5
I30
I20161109
I0
tp428
I60127
s(I6
I7
I6
I45
I20161121
I0
tp429
I61710
s(I6
I6
I2
I67
I20161117
I0
tp430
I61933
s(I6
I6
I7
I43
I20161117
I0
tp431
I61496
s(I6
I7
I3
I5
I20161121
I0
tp432
I60932
s(I6
I6
I2
I91
I20161117
I0
tp433
I61957
s(I6
I6
I7
I67
I20161117
I0
tp434
I61520
s(I6
I5
I6
I79
I20161109
I0
tp435
I60276
s(I6
I5
I5
I39
I20161109
I0
tp436
I60136
s(I6
I5
I2
I5
I20161109
I0
tp437
I60502
s(I6
I6
I2
I16
I20161117
I0
tp438
I61882
s(I6
I7
I5
I53
I20161121
I0
tp439
I61612
s(I6
I5
I2
I75
I20161109
I0
tp440
I60572
s(I6
I5
I3
I6
I20161109
I0
tp441
I60603
s(I6
I7
I3
I55
I20161121
I0
tp442
I60982
s(I6
I7
I5
I69
I20161121
I0
tp443
I61628
s(I6
I5
I6
I38
I20161109
I0
tp444
I60235
s(I6
I5
I5
I87
I20161109
I0
tp445
I60184
s(I6
I7
I1
I52
I20161121
I0
tp446
I60747
s(I6
I6
I4
I53
I20161117
I0
tp447
I61188
s(I6
I6
I1
I40
I20161117
I0
tp448
I61803
s(I6
I6
I4
I93
I20161117
I0
tp449
I61228
s(I6
I6
I3
I19
I20161117
I0
tp450
I61989
s(I6
I5
I1
I54
I20161109
I0
tp451
I60453
s(I6
I7
I2
I38
I20161121
I0
tp452
I60836
s(I6
I7
I2
I11
I20161121
I0
tp453
I60809
s(I6
I5
I4
I61
I20161109
I0
tp454
I60060
s(I6
I7
I1
I89
I20161121
I0
tp455
I60784
s(I6
I6
I3
I12
I20161117
I0
tp456
I61982
s(I6
I5
I7
I87
I20161109
I0
tp457
I60384
s(I6
I6
I6
I112
I20161117
I0
tp458
I61451
s(I6
I6
I3
I35
I20161117
I0
tp459
I62005
s(I6
I7
I1
I22
I20161121
I0
tp460
I60717
s(I6
I6
I2
I69
I20161117
I0
tp461
I61935
s(I6
I5
I6
I85
I20161109
I0
tp462
I60282
s(I6
I5
I5
I1
I20161109
I0
tp463
I60098
s(I6
I6
I6
I51
I20161117
I0
tp464
I61390
s(I6
I5
I5
I58
I20161109
I0
tp465
I60155
s(I6
I6
I6
I85
I20161117
I0
tp466
I61424
s(I6
I7
I1
I71
I20161121
I0
tp467
I60766
s(I6
I7
I3
I98
I20161121
I0
tp468
I61025
s(I6
I5
I7
I101
I20161109
I0
tp469
I60398
s(I6
I7
I4
I86
I20161121
I0
tp470
I61114
s(I6
I5
I6
I19
I20161109
I0
tp471
I60216
s(I6
I6
I5
I16
I20161117
I0
tp472
I61254
s(I6
I5
I7
I70
I20161109
I0
tp473
I60367
s(I6
I5
I6
I12
I20161109
I0
tp474
I60209
s(I6
I5
I3
I28
I20161109
I0
tp475
I60625
s(I6
I7
I2
I4
I20161121
I0
tp476
I60802
s(I6
I6
I4
I73
I20161117
I0
tp477
I61208
s(I6
I7
I3
I38
I20161121
I0
tp478
I60965
s(I6
I7
I4
I102
I20161121
I0
tp479
I61130
s(I6
I5
I5
I51
I20161109
I0
tp480
I60148
s(I6
I7
I6
I67
I20161121
I0
tp481
I61732
s(I6
I6
I4
I81
I20161117
I0
tp482
I61216
s(I6
I6
I7
I102
I20161117
I0
tp483
I61555
s(I6
I5
I3
I90
I20161109
I0
tp484
I60687
s(I6
I7
I4
I36
I20161121
I0
tp485
I61064
s(I6
I6
I4
I43
I20161117
I0
tp486
I61178
s(I6
I7
I6
I29
I20161121
I0
tp487
I61694
s(I6
I6
I4
I51
I20161117
I0
tp488
I61186
s(I6
I7
I5
I71
I20161121
I0
tp489
I61630
s(I6
I5
I3
I25
I20161109
I0
tp490
I60622
s(I6
I5
I4
I32
I20161109
I0
tp491
I60031
s(I6
I6
I4
I20
I20161117
I0
tp492
I61155
s(I6
I5
I3
I40
I20161109
I0
tp493
I60637
s(I6
I6
I7
I35
I20161117
I0
tp494
I61488
s(I6
I6
I6
I101
I20161117
I0
tp495
I61440
s(I6
I7
I5
I3
I20161121
I0
tp496
I61562
s(I6
I5
I4
I23
I20161109
I0
tp497
I60022
s(I6
I5
I7
I51
I20161109
I0
tp498
I60348
s(I6
I6
I2
I48
I20161117
I0
tp499
I61914
s(I6
I6
I3
I32
I20161117
I0
tp500
I62002
s(I6
I6
I2
I8
I20161117
I0
tp501
I61874
s(I6
I5
I6
I88
I20161109
I0
tp502
I60285
s(I6
I5
I3
I38
I20161109
I0
tp503
I60635
s(I6
I5
I2
I76
I20161109
I0
tp504
I60573
s(I6
I5
I4
I80
I20161109
I0
tp505
I60079
s(I6
I5
I4
I30
I20161109
I0
tp506
I60029
s(I6
I6
I2
I53
I20161117
I0
tp507
I61919
s(I6
I5
I4
I1
I20161109
I0
tp508
I60000
s(I6
I5
I5
I81
I20161109
I0
tp509
I60178
s(I6
I7
I2
I121
I20161121
I0
tp510
I60919
s(I6
I5
I7
I67
I20161109
I0
tp511
I60364
s(I6
I6
I5
I14
I20161117
I0
tp512
I61252
s(I6
I6
I3
I85
I20161117
I0
tp513
I62055
s(I6
I7
I5
I45
I20161121
I0
tp514
I61604
s(I6
I7
I2
I53
I20161121
I0
tp515
I60851
s(I6
I5
I2
I60
I20161109
I0
tp516
I60557
s(I6
I5
I4
I83
I20161109
I0
tp517
I60082
s(I6
I7
I1
I79
I20161121
I0
tp518
I60774
s(I6
I6
I3
I22
I20161117
I0
tp519
I61992
s(I6
I6
I7
I64
I20161117
I0
tp520
I61517
s(I6
I6
I4
I1
I20161117
I0
tp521
I61136
s(I6
I5
I4
I29
I20161109
I0
tp522
I60028
s(I6
I5
I6
I14
I20161109
I0
tp523
I60211
s(I6
I7
I1
I13
I20161121
I0
tp524
I60708
s(I6
I7
I3
I36
I20161121
I0
tp525
I60963
s(I6
I7
I2
I39
I20161121
I0
tp526
I60837
s(I6
I6
I6
I79
I20161117
I0
tp527
I61418
s(I6
I7
I3
I20
I20161121
I0
tp528
I60947
s(I6
I6
I1
I84
I20161117
I0
tp529
I61847
s(I6
I7
I5
I102
I20161121
I0
tp530
I61661
s(I6
I7
I4
I60
I20161121
I0
tp531
I61088
s(I6
I6
I6
I53
I20161117
I0
tp532
I61392
s(I6
I7
I1
I59
I20161121
I0
tp533
I60754
s(I6
I7
I2
I128
I20161121
I0
tp534
I60926
s(I6
I6
I7
I81
I20161117
I0
tp535
I61534
s(I6
I7
I5
I36
I20161121
I0
tp536
I61595
s(I6
I5
I3
I60
I20161109
I0
tp537
I60657
s(I6
I7
I4
I10
I20161121
I0
tp538
I61038
s(I6
I6
I4
I49
I20161117
I0
tp539
I61184
s(I6
I6
I1
I36
I20161117
I0
tp540
I61799
s(I6
I6
I3
I79
I20161117
I0
tp541
I62049
s(I6
I5
I4
I57
I20161109
I0
tp542
I60056
s(I6
I6
I5
I61
I20161117
I0
tp543
I61299
s(I6
I6
I3
I8
I20161117
I0
tp544
I61978
s(I6
I7
I3
I91
I20161121
I0
tp545
I61018
s(I6
I7
I5
I70
I20161121
I0
tp546
I61629
s(I6
I7
I4
I28
I20161121
I0
tp547
I61056
s(I6
I5
I5
I69
I20161109
I0
tp548
I60166
s(I6
I6
I2
I76
I20161117
I0
tp549
I61942
s(I6
I7
I6
I90
I20161121
I0
tp550
I61755
s(I6
I6
I7
I16
I20161117
I0
tp551
I61469
s(I6
I5
I7
I2
I20161109
I0
tp552
I60299
s(I6
I6
I7
I8
I20161117
I0
tp553
I61461
s(I6
I5
I2
I62
I20161109
I0
tp554
I60559
s(I6
I7
I5
I2
I20161121
I0
tp555
I61561
s(I6
I6
I2
I15
I20161117
I0
tp556
I61881
s(I6
I6
I6
I81
I20161117
I0
tp557
I61420
s(I6
I5
I5
I75
I20161109
I0
tp558
I60172
s(I6
I7
I2
I99
I20161121
I0
tp559
I60897
s(I6
I6
I5
I20
I20161117
I0
tp560
I61258
s(I6
I6
I1
I81
I20161117
I0
tp561
I61844
s(I6
I7
I6
I68
I20161121
I0
tp562
I61733
s(I6
I6
I5
I35
I20161117
I0
tp563
I61273
s(I6
I5
I3
I49
I20161109
I0
tp564
I60646
s(I6
I5
I2
I31
I20161109
I0
tp565
I60528
s(I6
I5
I6
I45
I20161109
I0
tp566
I60242
s(I6
I7
I2
I37
I20161121
I0
tp567
I60835
s(I6
I7
I4
I71
I20161121
I0
tp568
I61099
s(I6
I5
I1
I7
I20161109
I0
tp569
I60406
s(I6
I5
I6
I36
I20161109
I0
tp570
I60233
s(I6
I6
I6
I108
I20161117
I0
tp571
I61447
s(I6
I6
I2
I37
I20161117
I0
tp572
I61903
s(I6
I5
I3
I66
I20161109
I0
tp573
I60663
s(I6
I6
I2
I89
I20161117
I0
tp574
I61955
s(I6
I5
I2
I94
I20161109
I0
tp575
I60591
s(I6
I6
I6
I47
I20161117
I0
tp576
I61386
s(I6
I6
I3
I34
I20161117
I0
tp577
I62004
s(I6
I6
I6
I71
I20161117
I0
tp578
I61410
s(I6
I5
I3
I1
I20161109
I0
tp579
I60598
s(I6
I5
I4
I73
I20161109
I0
tp580
I60072
s(I6
I7
I1
I65
I20161121
I0
tp581
I60760
s(I6
I6
I6
I28
I20161117
I0
tp582
I61367
s(I6
I6
I1
I7
I20161117
I0
tp583
I61770
s(I6
I5
I5
I14
I20161109
I0
tp584
I60111
s(I6
I7
I4
I61
I20161121
I0
tp585
I61089
s(I6
I6
I2
I41
I20161117
I0
tp586
I61907
s(I6
I7
I1
I5
I20161121
I0
tp587
I60700
s(I6
I7
I3
I83
I20161121
I0
tp588
I61010
s(I6
I7
I5
I78
I20161121
I0
tp589
I61637
s(I6
I5
I5
I77
I20161109
I0
tp590
I60174
s(I6
I7
I3
I29
I20161121
I0
tp591
I60956
s(I6
I5
I5
I60
I20161109
I0
tp592
I60157
s(I6
I7
I5
I12
I20161121
I0
tp593
I61571
s(I6
I5
I6
I87
I20161109
I0
tp594
I60284
s(I6
I5
I2
I29
I20161109
I0
tp595
I60526
s(I6
I6
I7
I85
I20161117
I0
tp596
I61538
s(I6
I7
I1
I51
I20161121
I0
tp597
I60746
s(I6
I7
I3
I77
I20161121
I0
tp598
I61004
s(I6
I6
I4
I13
I20161117
I0
tp599
I61148
s(I6
I7
I5
I92
I20161121
I0
tp600
I61651
s(I6
I5
I1
I1
I20161109
I0
tp601
I60400
s(I6
I5
I4
I25
I20161109
I0
tp602
I60024
s(I6
I6
I7
I10
I20161117
I0
tp603
I61463
s(I6
I6
I7
I37
I20161117
I0
tp604
I61490
s(I6
I5
I3
I14
I20161109
I0
tp605
I60611
s(I6
I7
I5
I18
I20161121
I0
tp606
I61577
s(I6
I5
I2
I19
I20161109
I0
tp607
I60516
s(I6
I7
I6
I14
I20161121
I0
tp608
I61679
s(I6
I6
I6
I110
I20161117
I0
tp609
I61449
s(I6
I5
I1
I32
I20161109
I0
tp610
I60431
s(I6
I7
I6
I62
I20161121
I0
tp611
I61727
s(I6
I6
I6
I49
I20161117
I0
tp612
I61388
s(I6
I6
I6
I41
I20161117
I0
tp613
I61380
s(I6
I5
I6
I13
I20161109
I0
tp614
I60210
s(I6
I5
I1
I60
I20161109
I0
tp615
I60459
s(I6
I6
I1
I45
I20161117
I0
tp616
I61808
s(I6
I6
I4
I83
I20161117
I0
tp617
I61218
s(I6
I5
I5
I41
I20161109
I0
tp618
I60138
s(I6
I5
I4
I82
I20161109
I0
tp619
I60081
s(I6
I5
I3
I68
I20161109
I0
tp620
I60665
s(I6
I7
I2
I106
I20161121
I0
tp621
I60904
s(I6
I6
I3
I1
I20161117
I0
tp622
I61971
s(I6
I6
I2
I75
I20161117
I0
tp623
I61941
s(I6
I5
I1
I76
I20161109
I0
tp624
I60475
s(I6
I5
I3
I3
I20161109
I0
tp625
I60600
s(I6
I7
I2
I45
I20161121
I0
tp626
I60843
s(I6
I7
I2
I90
I20161121
I0
tp627
I60888
s(I6
I7
I4
I79
I20161121
I0
tp628
I61107
s(I6
I5
I3
I77
I20161109
I0
tp629
I60674
s(I6
I5
I5
I89
I20161109
I0
tp630
I60186
s(I6
I6
I2
I64
I20161117
I0
tp631
I61930
s(I6
I6
I7
I20
I20161117
I0
tp632
I61473
s(I6
I6
I7
I15
I20161117
I0
tp633
I61468
s(I6
I7
I2
I28
I20161121
I0
tp634
I60826
s(I6
I7
I4
I13
I20161121
I0
tp635
I61041
s(I6
I5
I5
I27
I20161109
I0
tp636
I60124
s(I6
I7
I1
I53
I20161121
I0
tp637
I60748
s(I6
I7
I3
I67
I20161121
I0
tp638
I60994
s(I6
I6
I6
I27
I20161117
I0
tp639
I61366
s(I6
I6
I1
I77
I20161117
I0
tp640
I61840
s(I6
I5
I6
I49
I20161109
I0
tp641
I60246
s(I6
I5
I3
I61
I20161109
I0
tp642
I60658
s(I6
I5
I4
I4
I20161109
I0
tp643
I60003
s(I6
I7
I3
I7
I20161121
I0
tp644
I60934
s(I6
I7
I5
I26
I20161121
I0
tp645
I61585
s(I6
I7
I6
I98
I20161121
I0
tp646
I61763
s(I6
I5
I4
I47
I20161109
I0
tp647
I60046
s(I6
I6
I4
I46
I20161117
I0
tp648
I61181
s(I6
I5
I5
I28
I20161109
I0
tp649
I60125
s(I6
I5
I1
I38
I20161109
I0
tp650
I60437
s(I6
I6
I4
I54
I20161117
I0
tp651
I61189
s(I6
I5
I2
I61
I20161109
I0
tp652
I60558
s(I6
I7
I6
I60
I20161121
I0
tp653
I61725
s(I6
I5
I6
I63
I20161109
I0
tp654
I60260
s(I6
I5
I2
I38
I20161109
I0
tp655
I60535
s(I6
I7
I3
I49
I20161121
I0
tp656
I60976
s(I6
I5
I1
I97
I20161109
I0
tp657
I60496
s(I6
I6
I6
I104
I20161117
I0
tp658
I61443
s(I6
I5
I2
I87
I20161109
I0
tp659
I60584
s(I6
I5
I3
I62
I20161109
I0
tp660
I60659
s(I6
I6
I3
I10
I20161117
I0
tp661
I61980
s(I6
I5
I1
I35
I20161109
I0
tp662
I60434
s(I6
I6
I3
I59
I20161117
I0
tp663
I62029
s(I6
I6
I6
I78
I20161117
I0
tp664
I61417
s(I6
I5
I2
I20
I20161109
I0
tp665
I60517
s(I6
I7
I3
I101
I20161121
I0
tp666
I61028
s(I6
I5
I3
I75
I20161109
I0
tp667
I60672
s(I6
I5
I6
I35
I20161109
I0
tp668
I60232
s(I6
I7
I3
I39
I20161121
I0
tp669
I60966
s(I6
I6
I6
I7
I20161117
I0
tp670
I61346
s(I6
I7
I5
I85
I20161121
I0
tp671
I61644
s(I6
I7
I1
I80
I20161121
I0
tp672
I60775
s(I6
I7
I1
I36
I20161121
I0
tp673
I60731
s(I6
I7
I2
I88
I20161121
I0
tp674
I60886
s(I6
I7
I5
I101
I20161121
I0
tp675
I61660
s(I6
I7
I6
I6
I20161121
I0
tp676
I61671
s(I6
I6
I1
I38
I20161117
I0
tp677
I61801
s(I6
I5
I5
I24
I20161109
I0
tp678
I60121
s(I6
I7
I1
I20
I20161121
I0
tp679
I60715
s(I6
I6
I4
I91
I20161117
I0
tp680
I61226
s(I6
I6
I1
I62
I20161117
I0
tp681
I61825
s(I6
I6
I3
I92
I20161117
I0
tp682
I62062
s(I6
I5
I7
I39
I20161109
I0
tp683
I60336
s(I6
I6
I4
I4
I20161117
I0
tp684
I61139
s(I6
I6
I7
I90
I20161117
I0
tp685
I61543
s(I6
I6
I4
I44
I20161117
I0
tp686
I61179
s(I6
I6
I3
I91
I20161117
I0
tp687
I62061
s(I6
I6
I7
I57
I20161117
I0
tp688
I61510
s(I6
I5
I1
I75
I20161109
I0
tp689
I60474
s(I6
I7
I2
I6
I20161121
I0
tp690
I60804
s(I6
I5
I4
I39
I20161109
I0
tp691
I60038
s(I6
I7
I4
I19
I20161121
I0
tp692
I61047
s(I6
I6
I6
I114
I20161117
I0
tp693
I61453
s(I6
I7
I6
I93
I20161121
I0
tp694
I61758
s(I6
I7
I1
I43
I20161121
I0
tp695
I60738
s(I6
I5
I7
I53
I20161109
I0
tp696
I60350
s(I6
I6
I6
I56
I20161117
I0
tp697
I61395
s(I6
I6
I5
I96
I20161117
I0
tp698
I61334
s(I6
I7
I3
I80
I20161121
I0
tp699
I61007
s(I6
I5
I7
I36
I20161109
I0
tp700
I60333
s(I6
I6
I2
I32
I20161117
I0
tp701
I61898
s(I6
I7
I6
I31
I20161121
I0
tp702
I61696
s(I6
I6
I2
I44
I20161117
I0
tp703
I61910
s(I6
I5
I2
I50
I20161109
I0
tp704
I60547
s(I6
I5
I1
I2
I20161109
I0
tp705
I60401
s(I6
I6
I5
I62
I20161117
I0
tp706
I61300
s(I6
I5
I1
I56
I20161109
I0
tp707
I60455
s(I6
I7
I3
I66
I20161121
I0
tp708
I60993
s(I6
I6
I5
I69
I20161117
I0
tp709
I61307
s(I6
I5
I2
I1
I20161109
I0
tp710
I60498
s(I6
I5
I7
I49
I20161109
I0
tp711
I60346
s(I6
I6
I4
I22
I20161117
I0
tp712
I61157
s(I6
I5
I1
I29
I20161109
I0
tp713
I60428
s(I6
I6
I1
I25
I20161117
I0
tp714
I61788
s(I6
I7
I3
I75
I20161121
I0
tp715
I61002
s(I6
I6
I3
I13
I20161117
I0
tp716
I61983
s(I6
I7
I4
I68
I20161121
I0
tp717
I61096
s(I6
I7
I6
I61
I20161121
I0
tp718
I61726
s(I6
I5
I6
I8
I20161109
I0
tp719
I60205
s(I6
I7
I3
I21
I20161121
I0
tp720
I60948
s(I6
I7
I5
I103
I20161121
I0
tp721
I61662
s(I6
I7
I2
I123
I20161121
I0
tp722
I60921
s(I6
I5
I4
I86
I20161109
I0
tp723
I60085
s(I6
I7
I5
I35
I20161121
I0
tp724
I61594
s(I6
I6
I2
I10
I20161117
I0
tp725
I61876
s(I6
I5
I4
I93
I20161109
I0
tp726
I60092
s(I6
I7
I1
I70
I20161121
I0
tp727
I60765
s(I6
I6
I1
I24
I20161117
I0
tp728
I61787
s(I6
I6
I6
I2
I20161117
I0
tp729
I61341
s(I6
I6
I6
I58
I20161117
I0
tp730
I61397
s(I6
I6
I1
I19
I20161117
I0
tp731
I61782
s(I6
I6
I5
I65
I20161117
I0
tp732
I61303
s(I6
I5
I3
I74
I20161109
I0
tp733
I60671
s(I6
I6
I4
I42
I20161117
I0
tp734
I61177
s(I6
I7
I2
I116
I20161121
I0
tp735
I60914
s(I6
I7
I2
I89
I20161121
I0
tp736
I60887
s(I6
I5
I7
I7
I20161109
I0
tp737
I60304
s(I6
I5
I5
I47
I20161109
I0
tp738
I60144
s(I6
I6
I4
I12
I20161117
I0
tp739
I61147
s(I6
I6
I4
I23
I20161117
I0
tp740
I61158
s(I6
I5
I3
I58
I20161109
I0
tp741
I60655
s(I6
I5
I4
I7
I20161109
I0
tp742
I60006
s(I6
I7
I6
I88
I20161121
I0
tp743
I61753
s(I6
I5
I7
I50
I20161109
I0
tp744
I60347
s(I6
I6
I3
I39
I20161117
I0
tp745
I62009
s(I6
I6
I7
I22
I20161117
I0
tp746
I61475
s(I6
I7
I2
I98
I20161121
I0
tp747
I60896
s(I6
I7
I3
I4
I20161121
I0
tp748
I60931
s(I6
I6
I2
I23
I20161117
I0
tp749
I61889
s(I6
I5
I1
I62
I20161109
I0
tp750
I60461
s(I6
I7
I1
I42
I20161121
I0
tp751
I60737
s(I6
I7
I2
I82
I20161121
I0
tp752
I60880
s(I6
I6
I2
I52
I20161117
I0
tp753
I61918
s(I6
I6
I5
I83
I20161117
I0
tp754
I61321
s(I6
I7
I4
I92
I20161121
I0
tp755
I61120
s(I6
I7
I6
I38
I20161121
I0
tp756
I61703
s(I6
I5
I7
I66
I20161109
I0
tp757
I60363
s(I6
I7
I2
I20
I20161121
I0
tp758
I60818
s(I6
I7
I3
I54
I20161121
I0
tp759
I60981
s(I6
I7
I5
I68
I20161121
I0
tp760
I61627
s(I6
I7
I4
I26
I20161121
I0
tp761
I61054
s(I6
I6
I3
I101
I20161117
I0
tp762
I62071
s(I6
I5
I3
I79
I20161109
I0
tp763
I60676
s(I6
I6
I1
I57
I20161117
I0
tp764
I61820
s(I6
I5
I6
I93
I20161109
I0
tp765
I60290
s(I6
I7
I4
I42
I20161121
I0
tp766
I61070
s(I6
I7
I6
I23
I20161121
I0
tp767
I61688
s(I6
I7
I3
I63
I20161121
I0
tp768
I60990
s(I6
I5
I3
I72
I20161109
I0
tp769
I60669
s(I6
I6
I2
I96
I20161117
I0
tp770
I61962
s(I6
I7
I1
I35
I20161121
I0
tp771
I60730
s(I6
I7
I5
I51
I20161121
I0
tp772
I61610
s(I6
I6
I6
I87
I20161117
I0
tp773
I61426
s(I6
I6
I2
I78
I20161117
I0
tp774
I61944
s(I6
I6
I6
I52
I20161117
I0
tp775
I61391
s(I6
I5
I7
I40
I20161109
I0
tp776
I60337
s(I6
I5
I3
I19
I20161109
I0
tp777
I60616
s(I6
I6
I6
I44
I20161117
I0
tp778
I61383
s(I6
I5
I1
I79
I20161109
I0
tp779
I60478
s(I6
I5
I5
I49
I20161109
I0
tp780
I60146
s(I6
I6
I6
I26
I20161117
I0
tp781
I61365
s(I6
I6
I5
I70
I20161117
I0
tp782
I61308
s(I6
I6
I2
I49
I20161117
I0
tp783
I61915
s(I6
I6
I5
I33
I20161117
I0
tp784
I61271
s(I6
I5
I1
I68
I20161109
I0
tp785
I60467
s(I6
I7
I2
I67
I20161121
I0
tp786
I60865
s(I6
I6
I5
I73
I20161117
I0
tp787
I61311
s(I6
I5
I3
I39
I20161109
I0
tp788
I60636
s(I6
I5
I7
I45
I20161109
I0
tp789
I60342
s(I6
I6
I4
I89
I20161117
I0
tp790
I61224
s(I6
I5
I4
I24
I20161109
I0
tp791
I60023
s(I6
I7
I5
I93
I20161121
I0
tp792
I61652
s(I6
I7
I2
I5
I20161121
I0
tp793
I60803
s(I6
I7
I4
I103
I20161121
I0
tp794
I61131
s(I6
I5
I5
I79
I20161109
I0
tp795
I60176
s(I6
I7
I1
I95
I20161121
I0
tp796
I60790
s(I6
I5
I2
I88
I20161109
I0
tp797
I60585
s(I6
I7
I5
I25
I20161121
I0
tp798
I61584
s(I6
I6
I3
I7
I20161117
I0
tp799
I61977
s(I6
I7
I3
I90
I20161121
I0
tp800
I61017
s(I6
I7
I2
I12
I20161121
I0
tp801
I60810
s(I6
I5
I2
I99
I20161109
I0
tp802
I60596
s(I6
I7
I3
I46
I20161121
I0
tp803
I60973
s(I6
I5
I7
I91
I20161109
I0
tp804
I60388
s(I6
I6
I3
I16
I20161117
I0
tp805
I61986
s(I6
I6
I1
I87
I20161117
I0
tp806
I61850
s(I6
I5
I1
I57
I20161109
I0
tp807
I60456
s(I6
I5
I4
I28
I20161109
I0
tp808
I60027
s(I6
I7
I4
I44
I20161121
I0
tp809
I61072
s(I6
I6
I6
I57
I20161117
I0
tp810
I61396
s(I6
I5
I1
I30
I20161109
I0
tp811
I60429
s(I6
I5
I6
I73
I20161109
I0
tp812
I60270
s(I6
I5
I5
I61
I20161109
I0
tp813
I60158
s(I6
I7
I2
I62
I20161121
I0
tp814
I60860
s(I6
I6
I6
I30
I20161117
I0
tp815
I61369
s(I6
I6
I3
I104
I20161117
I0
tp816
I62074
s(I6
I7
I5
I82
I20161121
I0
tp817
I61641
s(I6
I6
I6
I54
I20161117
I0
tp818
I61393
s(I6
I5
I6
I16
I20161109
I0
tp819
I60213
s(I6
I6
I1
I82
I20161117
I0
tp820
I61845
s(I6
I5
I7
I88
I20161109
I0
tp821
I60385
s(I6
I5
I6
I7
I20161109
I0
tp822
I60204
s(I6
I6
I5
I60
I20161117
I0
tp823
I61298
s(I6
I5
I4
I14
I20161109
I0
tp824
I60013
s(I6
I5
I1
I73
I20161109
I0
tp825
I60472
s(I6
I7
I1
I101
I20161121
I0
tp826
I60796
s(I6
I6
I7
I21
I20161117
I0
tp827
I61474
s(I6
I5
I5
I62
I20161109
I0
tp828
I60159
s(I6
I6
I4
I63
I20161117
I0
tp829
I61198
s(I6
I5
I7
I93
I20161109
I0
tp830
I60390
s(I6
I7
I4
I78
I20161121
I0
tp831
I61106
s(I6
I7
I5
I44
I20161121
I0
tp832
I61603
s(I6
I6
I7
I88
I20161117
I0
tp833
I61541
s(I6
I5
I1
I74
I20161109
I0
tp834
I60473
s(I6
I7
I2
I65
I20161121
I0
tp835
I60863
s(I6
I6
I7
I95
I20161117
I0
tp836
I61548
s(I6
I7
I6
I78
I20161121
I0
tp837
I61743
s(I6
I6
I2
I59
I20161117
I0
tp838
I61925
s(I6
I5
I5
I43
I20161109
I0
tp839
I60140
s(I6
I6
I6
I12
I20161117
I0
tp840
I61351
s(I6
I7
I5
I50
I20161121
I0
tp841
I61609
s(I6
I5
I6
I84
I20161109
I0
tp842
I60281
s(I6
I7
I6
I46
I20161121
I0
tp843
I61711
s(I6
I5
I5
I96
I20161109
I0
tp844
I60193
s(I6
I7
I2
I115
I20161121
I0
tp845
I60913
s(I6
I7
I5
I27
I20161121
I0
tp846
I61586
s(I6
I7
I6
I94
I20161121
I0
tp847
I61759
s(I6
I5
I4
I2
I20161109
I0
tp848
I60001
s(I6
I7
I5
I43
I20161121
I0
tp849
I61602
s(I6
I7
I2
I47
I20161121
I0
tp850
I60845
s(I6
I7
I4
I77
I20161121
I0
tp851
I61105
s(I6
I5
I2
I90
I20161109
I0
tp852
I60587
s(I6
I6
I3
I81
I20161117
I0
tp853
I62051
s(I6
I6
I5
I26
I20161117
I0
tp854
I61264
s(I6
I5
I3
I5
I20161109
I0
tp855
I60602
s(I6
I7
I4
I11
I20161121
I0
tp856
I61039
s(I6
I6
I3
I18
I20161117
I0
tp857
I61988
s(I6
I5
I7
I97
I20161109
I0
tp858
I60394
s(I6
I7
I1
I94
I20161121
I0
tp859
I60789
s(I6
I6
I7
I34
I20161117
I0
tp860
I61487
s(I6
I5
I2
I36
I20161109
I0
tp861
I60533
s(I6
I5
I6
I34
I20161109
I0
tp862
I60231
s(I6
I6
I6
I68
I20161117
I0
tp863
I61407
s(I6
I6
I1
I79
I20161117
I0
tp864
I61842
s(I6
I5
I7
I5
I20161109
I0
tp865
I60302
s(I6
I7
I1
I87
I20161121
I0
tp866
I60782
s(I6
I5
I7
I102
I20161109
I0
tp867
I60399
s(I6
I6
I6
I22
I20161117
I0
tp868
I61361
s(I6
I7
I4
I45
I20161121
I0
tp869
I61073
s(I6
I5
I1
I5
I20161109
I0
tp870
I60404
s(I6
I6
I5
I28
I20161117
I0
tp871
I61266
s(I6
I6
I5
I36
I20161117
I0
tp872
I61274
s(I6
I5
I2
I32
I20161109
I0
tp873
I60529
s(I6
I6
I1
I32
I20161117
I0
tp874
I61795
s(I6
I6
I5
I7
I20161117
I0
tp875
I61245
s(I6
I6
I4
I69
I20161117
I0
tp876
I61204
s(I6
I7
I4
I84
I20161121
I0
tp877
I61112
s(I6
I7
I5
I58
I20161121
I0
tp878
I61617
s(I6
I6
I4
I52
I20161117
I0
tp879
I61187
s(I6
I5
I1
I23
I20161109
I0
tp880
I60422
s(I6
I6
I3
I75
I20161117
I0
tp881
I62045
s(I6
I7
I4
I18
I20161121
I0
tp882
I61046
s(I6
I6
I3
I83
I20161117
I0
tp883
I62053
s(I6
I7
I6
I92
I20161121
I0
tp884
I61757
s(I6
I6
I7
I33
I20161117
I0
tp885
I61486
s(I6
I7
I4
I34
I20161121
I0
tp886
I61062
s(I6
I7
I5
I8
I20161121
I0
tp887
I61567
s(I6
I5
I3
I36
I20161109
I0
tp888
I60633
s(I6
I6
I3
I28
I20161117
I0
tp889
I61998
s(I6
I5
I1
I53
I20161109
I0
tp890
I60452
s(I6
I7
I2
I29
I20161121
I0
tp891
I60827
s(I6
I5
I4
I27
I20161109
I0
tp892
I60026
s(I6
I6
I7
I12
I20161117
I0
tp893
I61465
s(I6
I6
I2
I21
I20161117
I0
tp894
I61887
s(I6
I5
I4
I33
I20161109
I0
tp895
I60032
s(I6
I5
I5
I64
I20161109
I0
tp896
I60161
s(I6
I5
I7
I99
I20161109
I0
tp897
I60396
s(I6
I6
I3
I23
I20161117
I0
tp898
I61993
s(I6
I5
I2
I64
I20161109
I0
tp899
I60561
s(I6
I6
I1
I78
I20161117
I0
tp900
I61841
s(I6
I5
I4
I98
I20161109
I0
tp901
I60097
s(I6
I6
I5
I32
I20161117
I0
tp902
I61270
s(I6
I5
I7
I100
I20161109
I0
tp903
I60397
s(I6
I6
I1
I26
I20161117
I0
tp904
I61789
s(I6
I5
I2
I11
I20161109
I0
tp905
I60508
s(I6
I7
I6
I24
I20161121
I0
tp906
I61689
s(I6
I7
I1
I4
I20161121
I0
tp907
I60699
s(I6
I6
I3
I89
I20161117
I0
tp908
I62059
s(I6
I7
I4
I97
I20161121
I0
tp909
I61125
s(I6
I6
I5
I2
I20161117
I0
tp910
I61240
s(I6
I5
I7
I42
I20161109
I0
tp911
I60339
s(I6
I7
I6
I82
I20161121
I0
tp912
I61747
s(I6
I5
I7
I65
I20161109
I0
tp913
I60362
s(I6
I6
I7
I92
I20161117
I0
tp914
I61545
s(I6
I6
I7
I2
I20161117
I0
tp915
I61455
s(I6
I7
I1
I50
I20161121
I0
tp916
I60745
s(I6
I5
I6
I2
I20161109
I0
tp917
I60199
s(I6
I7
I6
I77
I20161121
I0
tp918
I61742
s(I6
I6
I6
I77
I20161117
I0
tp919
I61416
s(I6
I6
I6
I67
I20161117
I0
tp920
I61406
s(I6
I7
I4
I51
I20161121
I0
tp921
I61079
s(I6
I6
I1
I72
I20161117
I0
tp922
I61835
s(I6
I5
I2
I55
I20161109
I0
tp923
I60552
s(I6
I5
I1
I31
I20161109
I0
tp924
I60430
s(I6
I7
I1
I11
I20161121
I0
tp925
I60706
s(I6
I7
I3
I85
I20161121
I0
tp926
I61012
s(I6
I7
I5
I84
I20161121
I0
tp927
I61643
s(I6
I6
I1
I3
I20161117
I0
tp928
I61766
s(I6
I6
I4
I102
I20161117
I0
tp929
I61237
s(I6
I7
I1
I56
I20161121
I0
tp930
I60751
s(I6
I7
I6
I63
I20161121
I0
tp931
I61728
s(I6
I6
I1
I27
I20161117
I0
tp932
I61790
s(I6
I7
I3
I23
I20161121
I0
tp933
I60950
s(I6
I5
I4
I35
I20161109
I0
tp934
I60034
s(I6
I7
I5
I10
I20161121
I0
tp935
I61569
s(I6
I5
I5
I65
I20161109
I0
tp936
I60162
s(I6
I6
I3
I93
I20161117
I0
tp937
I62063
s(I6
I5
I7
I55
I20161109
I0
tp938
I60352
s(I6
I7
I6
I54
I20161121
I0
tp939
I61719
s(I6
I5
I6
I83
I20161109
I0
tp940
I60280
s(I6
I5
I2
I66
I20161109
I0
tp941
I60563
s(I6
I6
I7
I1
I20161117
I0
tp942
I61454
s(I6
I6
I3
I88
I20161117
I0
tp943
I62058
s(I6
I5
I5
I66
I20161109
I0
tp944
I60163
s(I6
I5
I5
I53
I20161109
I0
tp945
I60150
s(I6
I5
I4
I13
I20161109
I0
tp946
I60012
s(I6
I6
I7
I38
I20161117
I0
tp947
I61491
s(I6
I5
I6
I62
I20161109
I0
tp948
I60259
s(I6
I5
I7
I71
I20161109
I0
tp949
I60368
s(I6
I6
I6
I106
I20161117
I0
tp950
I61445
s(I6
I5
I5
I4
I20161109
I0
tp951
I60101
s(I6
I6
I7
I4
I20161117
I0
tp952
I61457
s(I6
I5
I7
I22
I20161109
I0
tp953
I60319
s(I6
I6
I5
I67
I20161117
I0
tp954
I61305
s(I6
I7
I3
I41
I20161121
I0
tp955
I60968
s(I6
I5
I5
I71
I20161109
I0
tp956
I60168
s(I6
I7
I6
I84
I20161121
I0
tp957
I61749
s(I6
I6
I1
I70
I20161117
I0
tp958
I61833
s(I6
I7
I1
I58
I20161121
I0
tp959
I60753
s(I6
I5
I7
I68
I20161109
I0
tp960
I60365
s(I6
I5
I6
I10
I20161109
I0
tp961
I60207
s(I6
I5
I2
I43
I20161109
I0
tp962
I60540
s(I6
I7
I6
I22
I20161121
I0
tp963
I61687
s(I6
I5
I6
I33
I20161109
I0
tp964
I60230
s(I6
I6
I1
I1
I20161117
I0
tp965
I61764
s(I6
I6
I4
I100
I20161117
I0
tp966
I61235
s(I6
I7
I2
I100
I20161121
I0
tp967
I60898
s(I6
I5
I7
I10
I20161109
I0
tp968
I60307
s(I6
I7
I4
I53
I20161121
I0
tp969
I61081
s(I6
I5
I4
I94
I20161109
I0
tp970
I60093
s(I6
I7
I1
I40
I20161121
I0
tp971
I60735
s(I6
I7
I2
I84
I20161121
I0
tp972
I60882
s(I6
I5
I6
I56
I20161109
I0
tp973
I60253
s(I6
I7
I4
I69
I20161121
I0
tp974
I61097
s(I6
I6
I6
I96
I20161117
I0
tp975
I61435
s(I6
I7
I1
I88
I20161121
I0
tp976
I60783
s(I6
I6
I3
I21
I20161117
I0
tp977
I61991
s(I6
I5
I3
I86
I20161109
I0
tp978
I60683
s(I6
I6
I2
I9
I20161117
I0
tp979
I61875
s(I6
I7
I6
I17
I20161121
I0
tp980
I61682
s(I6
I6
I2
I103
I20161117
I0
tp981
I61969
s(I6
I6
I6
I80
I20161117
I0
tp982
I61419
s(I6
I6
I2
I98
I20161117
I0
tp983
I61964
s(I6
I5
I6
I78
I20161109
I0
tp984
I60275
s(I6
I7
I2
I66
I20161121
I0
tp985
I60864
s(I6
I7
I3
I100
I20161121
I0
tp986
I61027
s(I6
I5
I5
I6
I20161109
I0
tp987
I60103
s(I6
I6
I1
I59
I20161117
I0
tp988
I61822
s(I6
I6
I6
I88
I20161117
I0
tp989
I61427
s(I6
I5
I4
I3
I20161109
I0
tp990
I60002
s(I6
I7
I3
I84
I20161121
I0
tp991
I61011
s(I6
I6
I7
I25
I20161117
I0
tp992
I61478
s(I6
I5
I4
I40
I20161109
I0
tp993
I60039
s(I6
I6
I3
I69
I20161117
I0
tp994
I62039
s(I6
I5
I5
I31
I20161109
I0
tp995
I60128
s(I6
I7
I3
I22
I20161121
I0
tp996
I60949
s(I6
I6
I4
I50
I20161117
I0
tp997
I61185
s(I6
I5
I5
I8
I20161109
I0
tp998
I60105
s(I6
I5
I1
I58
I20161109
I0
tp999
I60457
s(I6
I6
I7
I69
I20161117
I0
tp1000
I61522
s(I6
I7
I3
I47
I20161121
I0
tp1001
I60974
s(I6
I7
I5
I77
I20161121
I0
tp1002
I61636
s(I6
I5
I7
I96
I20161109
I0
tp1003
I60393
s(I6
I6
I4
I15
I20161117
I0
tp1004
I61150
s(I6
I7
I6
I55
I20161121
I0
tp1005
I61720
s(I6
I5
I7
I11
I20161109
I0
tp1006
I60308
s(I6
I7
I3
I31
I20161121
I0
tp1007
I60958
s(I6
I5
I6
I30
I20161109
I0
tp1008
I60227
s(I6
I6
I7
I62
I20161117
I0
tp1009
I61515
s(I6
I6
I6
I74
I20161117
I0
tp1010
I61413
s(I6
I5
I2
I14
I20161109
I0
tp1011
I60511
s(I6
I6
I3
I15
I20161117
I0
tp1012
I61985
s(I6
I6
I6
I98
I20161117
I0
tp1013
I61437
s(I6
I7
I5
I83
I20161121
I0
tp1014
I61642
s(I6
I5
I7
I25
I20161109
I0
tp1015
I60322
s(I6
I5
I3
I87
I20161109
I0
tp1016
I60684
s(I6
I6
I5
I68
I20161117
I0
tp1017
I61306
s(I6
I7
I6
I8
I20161121
I0
tp1018
I61673
s(I6
I5
I3
I97
I20161109
I0
tp1019
I60694
s(I6
I6
I1
I23
I20161117
I0
tp1020
I61786
s(I6
I6
I1
I33
I20161117
I0
tp1021
I61796
s(I6
I5
I5
I29
I20161109
I0
tp1022
I60126
s(I6
I6
I1
I58
I20161117
I0
tp1023
I61821
s(I6
I7
I1
I78
I20161121
I0
tp1024
I60773
s(I6
I6
I7
I104
I20161117
I0
tp1025
I61557
s(I6
I7
I2
I101
I20161121
I0
tp1026
I60899
s(I6
I6
I4
I40
I20161117
I0
tp1027
I61175
s(I6
I5
I5
I18
I20161109
I0
tp1028
I60115
s(I6
I6
I3
I53
I20161117
I0
tp1029
I62023
s(I6
I6
I2
I71
I20161117
I0
tp1030
I61937
s(I6
I7
I1
I12
I20161121
I0
tp1031
I60707
s(I6
I5
I7
I94
I20161109
I0
tp1032
I60391
s(I6
I7
I3
I74
I20161121
I0
tp1033
I61001
s(I6
I6
I2
I95
I20161117
I0
tp1034
I61961
s(I6
I6
I7
I71
I20161117
I0
tp1035
I61524
s(I6
I5
I6
I75
I20161109
I0
tp1036
I60272
s(I6
I5
I5
I59
I20161109
I0
tp1037
I60156
s(I6
I5
I3
I81
I20161109
I0
tp1038
I60678
s(I6
I5
I6
I100
I20161109
I0
tp1039
I60297
s(I6
I7
I2
I108
I20161121
I0
tp1040
I60906
s(I6
I7
I3
I14
I20161121
I0
tp1041
I60941
s(I6
I6
I7
I24
I20161117
I0
tp1042
I61477
s(I6
I5
I5
I48
I20161109
I0
tp1043
I60145
s(I6
I5
I3
I2
I20161109
I0
tp1044
I60599
s(I6
I7
I2
I46
I20161121
I0
tp1045
I60844
s(I6
I5
I3
I27
I20161109
I0
tp1046
I60624
s(I6
I7
I4
I76
I20161121
I0
tp1047
I61104
s(I6
I7
I6
I53
I20161121
I0
tp1048
I61718
s(I6
I7
I2
I30
I20161121
I0
tp1049
I60828
s(I6
I6
I5
I34
I20161117
I0
tp1050
I61272
s(I6
I7
I3
I56
I20161121
I0
tp1051
I60983
s(I6
I5
I4
I8
I20161109
I0
tp1052
I60007
s(I6
I5
I6
I61
I20161109
I0
tp1053
I60258
s(I6
I6
I5
I74
I20161117
I0
tp1054
I61312
s(I6
I6
I4
I18
I20161117
I0
tp1055
I61153
s(I6
I5
I1
I26
I20161109
I0
tp1056
I60425
s(I6
I6
I4
I58
I20161117
I0
tp1057
I61193
s(I6
I5
I3
I30
I20161109
I0
tp1058
I60627
s(I6
I7
I1
I21
I20161121
I0
tp1059
I60716
s(I6
I6
I7
I93
I20161117
I0
tp1060
I61546
s(I6
I6
I3
I9
I20161117
I0
tp1061
I61979
s(I6
I6
I1
I13
I20161117
I0
tp1062
I61776
s(I6
I6
I3
I17
I20161117
I0
tp1063
I61987
s(I6
I7
I5
I41
I20161121
I0
tp1064
I61600
s(I6
I7
I5
I76
I20161121
I0
tp1065
I61635
s(I6
I7
I6
I19
I20161121
I0
tp1066
I61684
s(I6
I6
I3
I47
I20161117
I0
tp1067
I62017
s(I6
I6
I3
I55
I20161117
I0
tp1068
I62025
s(I6
I5
I4
I75
I20161109
I0
tp1069
I60074
s(I6
I5
I4
I89
I20161109
I0
tp1070
I60088
s(I6
I6
I2
I102
I20161117
I0
tp1071
I61968
s(I6
I5
I5
I26
I20161109
I0
tp1072
I60123
s(I6
I6
I1
I55
I20161117
I0
tp1073
I61818
s(I6
I6
I1
I29
I20161117
I0
tp1074
I61792
s(I6
I7
I2
I83
I20161121
I0
tp1075
I60881
s(I6
I7
I5
I59
I20161121
I0
tp1076
I61618
s(I6
I5
I4
I69
I20161109
I0
tp1077
I60068
s(I6
I6
I5
I31
I20161117
I0
tp1078
I61269
s(I6
I7
I5
I75
I20161121
I0
tp1079
I61634
s(I6
I7
I2
I15
I20161121
I0
tp1080
I60813
s(I6
I6
I4
I62
I20161117
I0
tp1081
I61197
s(I6
I6
I1
I50
I20161117
I0
tp1082
I61813
s(I6
I5
I5
I12
I20161109
I0
tp1083
I60109
s(I6
I6
I1
I39
I20161117
I0
tp1084
I61802
s(I6
I5
I6
I86
I20161109
I0
tp1085
I60283
s(I6
I7
I1
I34
I20161121
I0
tp1086
I60729
s(I6
I7
I1
I85
I20161121
I0
tp1087
I60780
s(I6
I5
I6
I77
I20161109
I0
tp1088
I60274
s(I6
I7
I5
I9
I20161121
I0
tp1089
I61568
s(I6
I6
I4
I8
I20161117
I0
tp1090
I61143
s(I6
I5
I4
I44
I20161109
I0
tp1091
I60043
s(I6
I6
I4
I16
I20161117
I0
tp1092
I61151
s(I6
I5
I3
I52
I20161109
I0
tp1093
I60649
s(I6
I7
I1
I19
I20161121
I0
tp1094
I60714
s(I6
I7
I3
I62
I20161121
I0
tp1095
I60989
s(I6
I5
I4
I43
I20161109
I0
tp1096
I60042
s(I6
I5
I6
I68
I20161109
I0
tp1097
I60265
s(I6
I5
I2
I18
I20161109
I0
tp1098
I60515
s(I6
I6
I3
I11
I20161117
I0
tp1099
I61981
s(I6
I7
I4
I82
I20161121
I0
tp1100
I61110
s(I6
I5
I5
I16
I20161109
I0
tp1101
I60113
s(I6
I5
I1
I34
I20161109
I0
tp1102
I60433
s(I6
I6
I2
I11
I20161117
I0
tp1103
I61877
s(I6
I5
I3
I34
I20161109
I0
tp1104
I60631
s(I6
I5
I2
I80
I20161109
I0
tp1105
I60577
s(I6
I5
I7
I56
I20161109
I0
tp1106
I60353
s(I6
I6
I5
I101
I20161117
I0
tp1107
I61339
s(I6
I7
I4
I16
I20161121
I0
tp1108
I61044
s(I6
I7
I3
I82
I20161121
I0
tp1109
I61009
s(I6
I5
I2
I91
I20161109
I0
tp1110
I60588
s(I6
I6
I5
I42
I20161117
I0
tp1111
I61280
s(I6
I5
I1
I44
I20161109
I0
tp1112
I60443
s(I6
I5
I4
I97
I20161109
I0
tp1113
I60096
s(I6
I5
I2
I13
I20161109
I0
tp1114
I60510
s(I6
I7
I3
I28
I20161121
I0
tp1115
I60955
s(I6
I5
I4
I95
I20161109
I0
tp1116
I60094
s(I6
I6
I3
I105
I20161117
I0
tp1117
I62075
s(I6
I5
I3
I84
I20161109
I0
tp1118
I60681
s(I6
I5
I4
I68
I20161109
I0
tp1119
I60067
s(I6
I7
I5
I90
I20161121
I0
tp1120
I61649
s(I6
I6
I3
I49
I20161117
I0
tp1121
I62019
s(I6
I7
I2
I75
I20161121
I0
tp1122
I60873
s(I6
I5
I5
I92
I20161109
I0
tp1123
I60189
s(I6
I5
I4
I6
I20161109
I0
tp1124
I60005
s(I6
I7
I4
I50
I20161121
I0
tp1125
I61078
s(I6
I6
I6
I83
I20161117
I0
tp1126
I61422
s(I6
I7
I5
I24
I20161121
I0
tp1127
I61583
s(I6
I6
I6
I75
I20161117
I0
tp1128
I61414
s(I6
I5
I6
I5
I20161109
I0
tp1129
I60202
s(I6
I7
I2
I13
I20161121
I0
tp1130
I60811
s(I6
I6
I1
I80
I20161117
I0
tp1131
I61843
s(I6
I7
I5
I40
I20161121
I0
tp1132
I61599
s(I6
I6
I6
I40
I20161117
I0
tp1133
I61379
s(I6
I5
I7
I52
I20161109
I0
tp1134
I60349
s(I6
I7
I2
I125
I20161121
I0
tp1135
I60923
s(I6
I7
I5
I17
I20161121
I0
tp1136
I61576
s(I6
I5
I6
I66
I20161109
I0
tp1137
I60263
s(I6
I6
I1
I75
I20161117
I0
tp1138
I61838
s(I6
I6
I6
I21
I20161117
I0
tp1139
I61360
s(I6
I6
I6
I14
I20161117
I0
tp1140
I61353
s(I6
I5
I1
I82
I20161109
I0
tp1141
I60481
s(I6
I7
I2
I63
I20161121
I0
tp1142
I60861
s(I6
I5
I3
I32
I20161109
I0
tp1143
I60629
s(I6
I5
I2
I86
I20161109
I0
tp1144
I60583
s(I6
I5
I6
I99
I20161109
I0
tp1145
I60296
s(I6
I6
I4
I30
I20161117
I0
tp1146
I61165
s(I6
I6
I4
I38
I20161117
I0
tp1147
I61173
s(I6
I5
I3
I26
I20161109
I0
tp1148
I60623
s(I6
I6
I7
I106
I20161117
I0
tp1149
I61559
s(I6
I6
I4
I92
I20161117
I0
tp1150
I61227
s(I6
I5
I1
I92
I20161109
I0
tp1151
I60491
s(I6
I7
I2
I107
I20161121
I0
tp1152
I60905
s(I6
I5
I2
I68
I20161109
I0
tp1153
I60565
s(I6
I5
I2
I85
I20161109
I0
tp1154
I60582
s(I6
I6
I4
I27
I20161117
I0
tp1155
I61162
s(I6
I5
I3
I63
I20161109
I0
tp1156
I60660
s(I6
I6
I3
I43
I20161117
I0
tp1157
I62013
s(I6
I6
I2
I43
I20161117
I0
tp1158
I61909
s(I6
I7
I4
I3
I20161121
I0
tp1159
I61031
s(I6
I6
I2
I3
I20161117
I0
tp1160
I61869
s(I6
I7
I3
I69
I20161121
I0
tp1161
I60996
s(I6
I6
I2
I50
I20161117
I0
tp1162
I61916
s(I6
I7
I4
I83
I20161121
I0
tp1163
I61111
s(I6
I6
I6
I50
I20161117
I0
tp1164
I61389
s(I6
I7
I3
I6
I20161121
I0
tp1165
I60933
s(I6
I5
I5
I68
I20161109
I0
tp1166
I60165
s(I6
I5
I4
I65
I20161109
I0
tp1167
I60064
s(I6
I7
I4
I17
I20161121
I0
tp1168
I61045
s(I6
I7
I1
I41
I20161121
I0
tp1169
I60736
s(I6
I6
I3
I20
I20161117
I0
tp1170
I61990
s(I6
I7
I5
I42
I20161121
I0
tp1171
I61601
s(I6
I6
I3
I94
I20161117
I0
tp1172
I62064
s(I6
I5
I1
I27
I20161109
I0
tp1173
I60426
s(I6
I7
I4
I24
I20161121
I0
tp1174
I61052
s(I6
I7
I6
I86
I20161121
I0
tp1175
I61751
s(I6
I5
I1
I70
I20161109
I0
tp1176
I60469
s(I6
I6
I2
I93
I20161117
I0
tp1177
I61959
s(I6
I7
I6
I16
I20161121
I0
tp1178
I61681
s(I6
I6
I6
I43
I20161117
I0
tp1179
I61382
s(I6
I6
I3
I46
I20161117
I0
tp1180
I62016
s(I6
I6
I6
I8
I20161117
I0
tp1181
I61347
s(I6
I6
I2
I82
I20161117
I0
tp1182
I61948
s(I6
I5
I7
I20
I20161109
I0
tp1183
I60317
s(I6
I6
I6
I32
I20161117
I0
tp1184
I61371
s(I6
I7
I2
I41
I20161121
I0
tp1185
I60839
s(I6
I6
I2
I51
I20161117
I0
tp1186
I61917
s(I6
I6
I2
I45
I20161117
I0
tp1187
I61911
s(I6
I7
I1
I86
I20161121
I0
tp1188
I60781
s(I6
I6
I3
I41
I20161117
I0
tp1189
I62011
s(I6
I6
I1
I20
I20161117
I0
tp1190
I61783
s(I6
I5
I3
I43
I20161109
I0
tp1191
I60640
s(I6
I6
I4
I98
I20161117
I0
tp1192
I61233
s(I6
I5
I2
I17
I20161109
I0
tp1193
I60514
s(I6
I7
I2
I21
I20161121
I0
tp1194
I60819
s(I6
I6
I4
I60
I20161117
I0
tp1195
I61195
s(I6
I7
I2
I68
I20161121
I0
tp1196
I60866
s(I6
I6
I4
I9
I20161117
I0
tp1197
I61144
s(I6
I7
I4
I85
I20161121
I0
tp1198
I61113
s(I6
I6
I2
I97
I20161117
I0
tp1199
I61963
s(I6
I6
I7
I14
I20161117
I0
tp1200
I61467
s(I6
I7
I2
I7
I20161121
I0
tp1201
I60805
s(I6
I7
I4
I101
I20161121
I0
tp1202
I61129
s(I6
I7
I1
I93
I20161121
I0
tp1203
I60788
s(I6
I6
I7
I5
I20161117
I0
tp1204
I61458
s(I6
I5
I7
I9
I20161109
I0
tp1205
I60306
s(I6
I5
I4
I96
I20161109
I0
tp1206
I60095
s(I6
I7
I1
I27
I20161121
I0
tp1207
I60722
s(I6
I5
I6
I39
I20161109
I0
tp1208
I60236
s(I6
I5
I4
I46
I20161109
I0
tp1209
I60045
s(I6
I5
I4
I71
I20161109
I0
tp1210
I60070
s(I6
I6
I6
I18
I20161117
I0
tp1211
I61357
s(I6
I6
I6
I10
I20161117
I0
tp1212
I61349
s(I6
I5
I1
I78
I20161109
I0
tp1213
I60477
s(I6
I7
I3
I25
I20161121
I0
tp1214
I60952
s(I6
I6
I1
I17
I20161117
I0
tp1215
I61780
s(I6
I6
I5
I40
I20161117
I0
tp1216
I61278
s(I6
I6
I5
I25
I20161117
I0
tp1217
I61263
s(I6
I6
I4
I95
I20161117
I0
tp1218
I61230
s(I6
I5
I2
I12
I20161109
I0
tp1219
I60509
s(I6
I6
I4
I103
I20161117
I0
tp1220
I61238
s(I6
I5
I2
I47
I20161109
I0
tp1221
I60544
s(I6
I6
I4
I88
I20161117
I0
tp1222
I61223
s(I6
I5
I1
I88
I20161109
I0
tp1223
I60487
s(I6
I5
I5
I34
I20161109
I0
tp1224
I60131
s(I6
I7
I6
I10
I20161121
I0
tp1225
I61675
s(I6
I7
I6
I39
I20161121
I0
tp1226
I61704
s(I6
I6
I6
I103
I20161117
I0
tp1227
I61442
s(I6
I5
I3
I15
I20161109
I0
tp1228
I60612
s(I6
I7
I3
I15
I20161121
I0
tp1229
I60942
s(I6
I6
I2
I68
I20161117
I0
tp1230
I61934
s(I6
I7
I5
I34
I20161121
I0
tp1231
I61593
s(I6
I5
I3
I82
I20161109
I0
tp1232
I60679
s(I6
I6
I2
I7
I20161117
I0
tp1233
I61873
s(I6
I7
I1
I76
I20161121
I0
tp1234
I60771
s(I6
I7
I1
I46
I20161121
I0
tp1235
I60741
s(I6
I7
I3
I57
I20161121
I0
tp1236
I60984
s(I6
I6
I6
I23
I20161117
I0
tp1237
I61362
s(I6
I5
I3
I12
I20161109
I0
tp1238
I60609
s(I6
I7
I6
I5
I20161121
I0
tp1239
I61670
s(I6
I5
I7
I15
I20161109
I0
tp1240
I60312
s(I6
I6
I1
I60
I20161117
I0
tp1241
I61823
s(I6
I7
I1
I10
I20161121
I0
tp1242
I60705
s(I6
I6
I4
I97
I20161117
I0
tp1243
I61232
s(I6
I7
I6
I40
I20161121
I0
tp1244
I61705
s(I6
I6
I4
I66
I20161117
I0
tp1245
I61201
s(I6
I7
I2
I110
I20161121
I0
tp1246
I60908
s(I6
I5
I4
I15
I20161109
I0
tp1247
I60014
s(I6
I7
I4
I59
I20161121
I0
tp1248
I61087
s(I6
I6
I3
I90
I20161117
I0
tp1249
I62060
s(I6
I6
I5
I6
I20161117
I0
tp1250
I61244
s(I6
I5
I7
I46
I20161109
I0
tp1251
I60343
s(I6
I5
I2
I42
I20161109
I0
tp1252
I60539
s(I6
I7
I2
I48
I20161121
I0
tp1253
I60846
s(I6
I6
I6
I100
I20161117
I0
tp1254
I61439
s(I6
I5
I7
I92
I20161109
I0
tp1255
I60389
s(I6
I7
I4
I9
I20161121
I0
tp1256
I61037
s(I6
I6
I2
I81
I20161117
I0
tp1257
I61947
s(I6
I5
I4
I10
I20161109
I0
tp1258
I60009
s(I6
I5
I1
I90
I20161109
I0
tp1259
I60489
s(I6
I6
I3
I70
I20161117
I0
tp1260
I62040
s(I6
I7
I1
I49
I20161121
I0
tp1261
I60744
s(I6
I6
I6
I73
I20161117
I0
tp1262
I61412
s(I6
I5
I2
I24
I20161109
I0
tp1263
I60521
s(I6
I6
I6
I97
I20161117
I0
tp1264
I61436
s(I6
I5
I2
I41
I20161109
I0
tp1265
I60538
s(I6
I5
I1
I20
I20161109
I0
tp1266
I60419
s(I6
I6
I1
I92
I20161117
I0
tp1267
I61855
s(I6
I6
I6
I70
I20161117
I0
tp1268
I61409
s(I6
I7
I2
I76
I20161121
I0
tp1269
I60874
s(I6
I5
I7
I82
I20161109
I0
tp1270
I60379
s(I6
I5
I6
I32
I20161109
I0
tp1271
I60229
s(I6
I7
I4
I93
I20161121
I0
tp1272
I61121
s(I6
I6
I5
I39
I20161117
I0
tp1273
I61277
s(I6
I6
I4
I101
I20161117
I0
tp1274
I61236
s(I6
I7
I2
I14
I20161121
I0
tp1275
I60812
s(I6
I5
I3
I78
I20161109
I0
tp1276
I60675
s(I6
I7
I6
I85
I20161121
I0
tp1277
I61750
s(I6
I5
I1
I55
I20161109
I0
tp1278
I60454
s(I6
I5
I2
I44
I20161109
I0
tp1279
I60541
s(I6
I6
I1
I34
I20161117
I0
tp1280
I61797
s(I6
I6
I4
I71
I20161117
I0
tp1281
I61206
s(I6
I7
I6
I25
I20161121
I0
tp1282
I61690
s(I6
I5
I6
I80
I20161109
I0
tp1283
I60277
s(I6
I6
I4
I56
I20161117
I0
tp1284
I61191
s(I6
I6
I4
I64
I20161117
I0
tp1285
I61199
s(I6
I5
I3
I4
I20161109
I0
tp1286
I60601
s(I6
I6
I3
I71
I20161117
I0
tp1287
I62041
s(I6
I5
I4
I59
I20161109
I0
tp1288
I60058
s(I6
I5
I1
I71
I20161109
I0
tp1289
I60470
s(I6
I7
I5
I57
I20161121
I0
tp1290
I61616
s(I6
I6
I2
I100
I20161117
I0
tp1291
I61966
s(I6
I5
I2
I73
I20161109
I0
tp1292
I60570
s(I6
I7
I3
I35
I20161121
I0
tp1293
I60962
s(I6
I7
I5
I73
I20161121
I0
tp1294
I61632
s(I6
I5
I7
I21
I20161109
I0
tp1295
I60318
s(I6
I6
I2
I1
I20161117
I0
tp1296
I61867
s(I6
I5
I4
I53
I20161109
I0
tp1297
I60052
s(I6
I7
I5
I15
I20161121
I0
tp1298
I61574
s(I6
I6
I1
I66
I20161117
I0
tp1299
I61829
s(I6
I5
I7
I72
I20161109
I0
tp1300
I60369
s(I6
I5
I6
I6
I20161109
I0
tp1301
I60203
s(I6
I6
I5
I44
I20161117
I0
tp1302
I61282
s(I6
I6
I5
I29
I20161117
I0
tp1303
I61267
s(I6
I5
I2
I16
I20161109
I0
tp1304
I60513
s(I6
I7
I5
I91
I20161121
I0
tp1305
I61650
s(I6
I5
I7
I14
I20161109
I0
tp1306
I60311
s(I6
I6
I4
I21
I20161117
I0
tp1307
I61156
s(I6
I6
I7
I26
I20161117
I0
tp1308
I61479
s(I6
I6
I4
I61
I20161117
I0
tp1309
I61196
s(I6
I7
I2
I74
I20161121
I0
tp1310
I60872
s(I6
I5
I1
I49
I20161109
I0
tp1311
I60448
s(I6
I5
I4
I41
I20161109
I0
tp1312
I60040
s(I6
I5
I1
I22
I20161109
I0
tp1313
I60421
s(I6
I7
I1
I2
I20161121
I0
tp1314
I60697
s(I6
I6
I6
I99
I20161117
I0
tp1315
I61438
s(I6
I7
I3
I92
I20161121
I0
tp1316
I61019
s(I6
I5
I2
I23
I20161109
I0
tp1317
I60520
s(I6
I6
I3
I31
I20161117
I0
tp1318
I62001
s(I6
I7
I2
I124
I20161121
I0
tp1319
I60922
s(I6
I7
I3
I30
I20161121
I0
tp1320
I60957
s(I6
I6
I6
I65
I20161117
I0
tp1321
I61404
s(I6
I6
I3
I52
I20161117
I0
tp1322
I62022
s(I6
I5
I6
I82
I20161109
I0
tp1323
I60279
s(I6
I7
I1
I48
I20161121
I0
tp1324
I60743
s(I6
I5
I1
I19
I20161109
I0
tp1325
I60418
s(I6
I7
I2
I56
I20161121
I0
tp1326
I60854
s(I6
I6
I6
I19
I20161117
I0
tp1327
I61358
s(I6
I7
I6
I79
I20161121
I0
tp1328
I61744
s(I6
I6
I1
I56
I20161117
I0
tp1329
I61819
s(I6
I6
I3
I44
I20161117
I0
tp1330
I62014
s(I6
I6
I1
I15
I20161117
I0
tp1331
I61778
s(I6
I5
I7
I69
I20161109
I0
tp1332
I60366
s(I6
I7
I4
I48
I20161121
I0
tp1333
I61076
s(I6
I7
I6
I9
I20161121
I0
tp1334
I61674
s(I6
I7
I3
I33
I20161121
I0
tp1335
I60960
s(I6
I5
I5
I19
I20161109
I0
tp1336
I60116
s(I6
I6
I7
I17
I20161117
I0
tp1337
I61470
s(I6
I7
I3
I17
I20161121
I0
tp1338
I60944
s(I6
I5
I4
I45
I20161109
I0
tp1339
I60044
s(I6
I6
I3
I33
I20161117
I0
tp1340
I62003
s(I6
I6
I4
I11
I20161117
I0
tp1341
I61146
s(I6
I6
I2
I88
I20161117
I0
tp1342
I61954
s(I6
I5
I7
I12
I20161109
I0
tp1343
I60309
s(I6
I6
I4
I19
I20161117
I0
tp1344
I61154
s(I6
I6
I7
I36
I20161117
I0
tp1345
I61489
s(I6
I5
I7
I54
I20161109
I0
tp1346
I60351
s(I6
I6
I7
I50
I20161117
I0
tp1347
I61503
s(I6
I5
I6
I50
I20161109
I0
tp1348
I60247
s(I6
I6
I2
I27
I20161117
I0
tp1349
I61893
s(I6
I6
I7
I3
I20161117
I0
tp1350
I61456
s(I6
I6
I6
I69
I20161117
I0
tp1351
I61408
s(I6
I5
I7
I19
I20161109
I0
tp1352
I60316
s(I6
I6
I5
I79
I20161117
I0
tp1353
I61317
s(I6
I7
I2
I109
I20161121
I0
tp1354
I60907
s(I6
I6
I2
I26
I20161117
I0
tp1355
I61892
s(I6
I6
I5
I87
I20161117
I0
tp1356
I61325
s(I6
I5
I3
I13
I20161109
I0
tp1357
I60610
s(I6
I7
I2
I93
I20161121
I0
tp1358
I60891
s(I6
I7
I5
I49
I20161121
I0
tp1359
I61608
s(I6
I5
I2
I48
I20161109
I0
tp1360
I60545
s(I6
I6
I5
I50
I20161117
I0
tp1361
I61288
s(I6
I7
I2
I31
I20161121
I0
tp1362
I60829
s(I6
I6
I4
I29
I20161117
I0
tp1363
I61164
s(I6
I5
I1
I17
I20161109
I0
tp1364
I60416
s(I6
I7
I3
I76
I20161121
I0
tp1365
I61003
s(I6
I7
I2
I54
I20161121
I0
tp1366
I60852
s(I6
I7
I5
I7
I20161121
I0
tp1367
I61566
s(I6
I5
I5
I21
I20161109
I0
tp1368
I60118
s(I6
I7
I2
I102
I20161121
I0
tp1369
I60900
s(I6
I6
I3
I25
I20161117
I0
tp1370
I61995
s(I6
I6
I7
I91
I20161117
I0
tp1371
I61544
s(I6
I5
I1
I48
I20161109
I0
tp1372
I60447
s(I6
I6
I2
I66
I20161117
I0
tp1373
I61932
s(I6
I7
I2
I40
I20161121
I0
tp1374
I60838
s(I6
I6
I6
I48
I20161117
I0
tp1375
I61387
s(I6
I6
I2
I90
I20161117
I0
tp1376
I61956
s(I6
I7
I4
I66
I20161121
I0
tp1377
I61094
s(I6
I6
I7
I28
I20161117
I0
tp1378
I61481
s(I6
I5
I5
I52
I20161109
I0
tp1379
I60149
s(I6
I6
I2
I5
I20161117
I0
tp1380
I61871
s(I6
I7
I4
I6
I20161121
I0
tp1381
I61034
s(I6
I6
I6
I13
I20161117
I0
tp1382
I61352
s(I6
I5
I3
I59
I20161109
I0
tp1383
I60656
s(I6
I5
I1
I64
I20161109
I0
tp1384
I60463
s(I6
I5
I5
I40
I20161109
I0
tp1385
I60137
s(I6
I6
I5
I77
I20161117
I0
tp1386
I61315
s(I6
I7
I1
I75
I20161121
I0
tp1387
I60770
s(I6
I6
I4
I17
I20161117
I0
tp1388
I61152
s(I6
I5
I7
I26
I20161109
I0
tp1389
I60323
s(I6
I6
I4
I57
I20161117
I0
tp1390
I61192
s(I6
I7
I1
I9
I20161121
I0
tp1391
I60704
s(I6
I5
I7
I48
I20161109
I0
tp1392
I60345
s(I6
I7
I3
I32
I20161121
I0
tp1393
I60959
s(I6
I7
I4
I100
I20161121
I0
tp1394
I61128
s(I6
I7
I5
I74
I20161121
I0
tp1395
I61633
s(I6
I6
I7
I73
I20161117
I0
tp1396
I61526
s(I6
I7
I6
I70
I20161121
I0
tp1397
I61735
s(I6
I5
I5
I88
I20161109
I0
tp1398
I60185
s(I6
I7
I2
I91
I20161121
I0
tp1399
I60889
s(I6
I7
I4
I56
I20161121
I0
tp1400
I61084
s(I6
I5
I1
I52
I20161109
I0
tp1401
I60451
s(I6
I5
I7
I57
I20161109
I0
tp1402
I60354
s(I6
I7
I5
I67
I20161121
I0
tp1403
I61626
s(I6
I7
I4
I27
I20161121
I0
tp1404
I61055
s(I6
I7
I2
I23
I20161121
I0
tp1405
I60821
s(I6
I6
I6
I93
I20161117
I0
tp1406
I61432
s(I6
I6
I3
I51
I20161117
I0
tp1407
I62021
s(I6
I5
I4
I87
I20161109
I0
tp1408
I60086
s(I6
I5
I2
I2
I20161109
I0
tp1409
I60499
s(I6
I7
I5
I1
I20161121
I0
tp1410
I61560
s(I6
I5
I1
I50
I20161109
I0
tp1411
I60449
s(I6
I5
I3
I45
I20161109
I0
tp1412
I60642
s(I6
I6
I2
I47
I20161117
I0
tp1413
I61913
s(I6
I6
I5
I88
I20161117
I0
tp1414
I61326
s(I6
I7
I2
I9
I20161121
I0
tp1415
I60807
s(I6
I5
I7
I73
I20161109
I0
tp1416
I60370
s(I6
I6
I5
I3
I20161117
I0
tp1417
I61241
s(I6
I5
I5
I50
I20161109
I0
tp1418
I60147
s(I6
I5
I6
I81
I20161109
I0
tp1419
I60278
s(I6
I7
I2
I117
I20161121
I0
tp1420
I60915
s(I6
I5
I6
I74
I20161109
I0
tp1421
I60271
s(I6
I7
I6
I57
I20161121
I0
tp1422
I61722
s(I6
I5
I3
I95
I20161109
I0
tp1423
I60692
s(I6
I6
I2
I92
I20161117
I0
tp1424
I61958
s(I6
I6
I4
I31
I20161117
I0
tp1425
I61166
s(I6
I5
I6
I59
I20161109
I0
tp1426
I60256
s(I6
I7
I2
I55
I20161121
I0
tp1427
I60853
s(I6
I5
I7
I74
I20161109
I0
tp1428
I60371
s(I6
I5
I3
I24
I20161109
I0
tp1429
I60621
s(I6
I6
I7
I83
I20161117
I0
tp1430
I61536
s(I6
I5
I1
I93
I20161109
I0
tp1431
I60492
s(I6
I7
I1
I77
I20161121
I0
tp1432
I60772
s(I6
I5
I5
I20
I20161109
I0
tp1433
I60117
s(I6
I6
I6
I15
I20161117
I0
tp1434
I61354
s(I6
I6
I6
I39
I20161117
I0
tp1435
I61378
s(I6
I5
I3
I33
I20161109
I0
tp1436
I60630
s(I6
I5
I7
I63
I20161109
I0
tp1437
I60360
s(I6
I5
I3
I22
I20161109
I0
tp1438
I60619
s(I6
I7
I5
I100
I20161121
I0
tp1439
I61659
s(I6
I7
I4
I58
I20161121
I0
tp1440
I61086
s(I6
I7
I5
I16
I20161121
I0
tp1441
I61575
s(I6
I6
I4
I90
I20161117
I0
tp1442
I61225
s(I6
I6
I5
I54
I20161117
I0
tp1443
I61292
s(I6
I7
I4
I74
I20161121
I0
tp1444
I61102
s(I6
I7
I5
I32
I20161121
I0
tp1445
I61591
s(I6
I6
I4
I25
I20161117
I0
tp1446
I61160
s(I6
I5
I4
I88
I20161109
I0
tp1447
I60087
s(I6
I5
I7
I16
I20161109
I0
tp1448
I60313
s(I6
I5
I2
I67
I20161109
I0
tp1449
I60564
s(I6
I5
I4
I67
I20161109
I0
tp1450
I60066
s(I6
I7
I4
I8
I20161121
I0
tp1451
I61036
s(I6
I7
I4
I14
I20161121
I0
tp1452
I61042
s(I6
I5
I3
I10
I20161109
I0
tp1453
I60607
s(I6
I6
I3
I102
I20161117
I0
tp1454
I62072
s(I6
I5
I4
I26
I20161109
I0
tp1455
I60025
s(I6
I6
I3
I5
I20161117
I0
tp1456
I61975
s(I6
I5
I5
I95
I20161109
I0
tp1457
I60192
s(I6
I7
I6
I42
I20161121
I0
tp1458
I61707
s(I6
I6
I2
I70
I20161117
I0
tp1459
I61936
s(I6
I7
I5
I31
I20161121
I0
tp1460
I61590
s(I6
I6
I2
I12
I20161117
I0
tp1461
I61878
s(I6
I6
I1
I76
I20161117
I0
tp1462
I61839
s(I6
I5
I2
I51
I20161109
I0
tp1463
I60548
s(I6
I6
I1
I21
I20161117
I0
tp1464
I61784
s(I6
I5
I6
I94
I20161109
I0
tp1465
I60291
s(I6
I6
I1
I71
I20161117
I0
tp1466
I61834
s(I6
I6
I6
I17
I20161117
I0
tp1467
I61356
s(I6
I5
I5
I22
I20161109
I0
tp1468
I60119
s(I6
I6
I6
I9
I20161117
I0
tp1469
I61348
s(I6
I6
I1
I18
I20161117
I0
tp1470
I61781
s(I6
I5
I5
I44
I20161109
I0
tp1471
I60141
s(I6
I5
I6
I28
I20161109
I0
tp1472
I60225
s(I6
I7
I6
I76
I20161121
I0
tp1473
I61741
s(I6
I6
I3
I50
I20161117
I0
tp1474
I62020
s(I6
I6
I5
I11
I20161117
I0
tp1475
I61249
s(I6
I6
I4
I48
I20161117
I0
tp1476
I61183
s(I6
I5
I5
I9
I20161109
I0
tp1477
I60106
s(I6
I7
I2
I33
I20161121
I0
tp1478
I60831
s(I6
I7
I4
I91
I20161121
I0
tp1479
I61119
s(I6
I6
I7
I77
I20161117
I0
tp1480
I61530
s(I6
I7
I1
I99
I20161121
I0
tp1481
I60794
s(I6
I5
I6
I27
I20161109
I0
tp1482
I60224
s(I6
I5
I2
I89
I20161109
I0
tp1483
I60586
s(I6
I5
I3
I56
I20161109
I0
tp1484
I60653
s(I6
I7
I4
I25
I20161121
I0
tp1485
I61053
s(I6
I7
I6
I87
I20161121
I0
tp1486
I61752
s(I6
I7
I1
I33
I20161121
I0
tp1487
I60728
s(I6
I6
I7
I40
I20161117
I0
tp1488
I61493
s(I6
I5
I2
I30
I20161109
I0
tp1489
I60527
s(I6
I7
I4
I41
I20161121
I0
tp1490
I61069
s(I6
I7
I1
I17
I20161121
I0
tp1491
I60712
s(I6
I5
I7
I31
I20161109
I0
tp1492
I60328
s(I6
I5
I2
I92
I20161109
I0
tp1493
I60589
s(I6
I6
I2
I54
I20161117
I0
tp1494
I61920
s(I6
I6
I5
I81
I20161117
I0
tp1495
I61319
s(I6
I7
I6
I11
I20161121
I0
tp1496
I61676
s(I6
I6
I2
I14
I20161117
I0
tp1497
I61880
s(I6
I6
I1
I74
I20161117
I0
tp1498
I61837
s(I6
I6
I3
I37
I20161117
I0
tp1499
I62007
s(I6
I7
I1
I69
I20161121
I0
tp1500
I60764
s(I6
I5
I7
I62
I20161109
I0
tp1501
I60359
s(I6
I6
I3
I57
I20161117
I0
tp1502
I62027
s(I6
I7
I4
I30
I20161121
I0
tp1503
I61058
s(I6
I5
I2
I26
I20161109
I0
tp1504
I60523
s(I6
I7
I1
I3
I20161121
I0
tp1505
I60698
s(I6
I7
I3
I93
I20161121
I0
tp1506
I61020
s(I6
I5
I1
I65
I20161109
I0
tp1507
I60464
s(I6
I5
I7
I78
I20161109
I0
tp1508
I60375
s(I6
I6
I7
I87
I20161117
I0
tp1509
I61540
s(I6
I6
I3
I42
I20161117
I0
tp1510
I62012
s(I6
I6
I7
I29
I20161117
I0
tp1511
I61482
s(I6
I6
I6
I95
I20161117
I0
tp1512
I61434
s(I6
I5
I1
I3
I20161109
I0
tp1513
I60402
s(I6
I5
I6
I25
I20161109
I0
tp1514
I60222
s(I6
I6
I1
I68
I20161117
I0
tp1515
I61831
s(I6
I6
I6
I46
I20161117
I0
tp1516
I61385
s(I6
I7
I1
I92
I20161121
I0
tp1517
I60787
s(I6
I7
I3
I3
I20161121
I0
tp1518
I60930
s(I6
I5
I5
I42
I20161109
I0
tp1519
I60139
s(I6
I7
I5
I30
I20161121
I0
tp1520
I61589
s(I6
I5
I6
I3
I20161109
I0
tp1521
I60200
s(I6
I7
I6
I56
I20161121
I0
tp1522
I61721
s(I6
I5
I1
I94
I20161109
I0
tp1523
I60493
s(I6
I7
I2
I126
I20161121
I0
tp1524
I60924
s(I6
I5
I7
I59
I20161109
I0
tp1525
I60356
s(I6
I7
I4
I43
I20161121
I0
tp1526
I61071
s(I6
I6
I4
I59
I20161117
I0
tp1527
I61194
s(I6
I5
I2
I71
I20161109
I0
tp1528
I60568
s(I6
I5
I3
I46
I20161109
I0
tp1529
I60643
s(I6
I5
I7
I60
I20161109
I0
tp1530
I60357
s(I6
I5
I1
I87
I20161109
I0
tp1531
I60486
s(I6
I6
I3
I68
I20161117
I0
tp1532
I62038
s(I6
I6
I7
I58
I20161117
I0
tp1533
I61511
s(I6
I6
I6
I37
I20161117
I0
tp1534
I61376
s(I6
I6
I2
I99
I20161117
I0
tp1535
I61965
s(I6
I7
I1
I98
I20161121
I0
tp1536
I60793
s(I6
I6
I2
I25
I20161117
I0
tp1537
I61891
s(I6
I6
I2
I24
I20161117
I0
tp1538
I61890
s(I6
I5
I4
I91
I20161109
I0
tp1539
I60090
s(I6
I7
I1
I32
I20161121
I0
tp1540
I60727
s(I6
I7
I2
I92
I20161121
I0
tp1541
I60890
s(I6
I5
I5
I91
I20161109
I0
tp1542
I60188
s(I6
I6
I2
I46
I20161117
I0
tp1543
I61912
s(I6
I7
I2
I24
I20161121
I0
tp1544
I60822
s(I6
I5
I4
I49
I20161109
I0
tp1545
I60048
s(I6
I7
I4
I1
I20161121
I0
tp1546
I61029
s(I6
I5
I5
I80
I20161109
I0
tp1547
I60177
s(I6
I5
I1
I98
I20161109
I0
tp1548
I60497
s(I6
I7
I1
I57
I20161121
I0
tp1549
I60752
s(I6
I6
I1
I101
I20161117
I0
tp1550
I61864
s(I6
I5
I7
I83
I20161109
I0
tp1551
I60380
s(I6
I7
I3
I71
I20161121
I0
tp1552
I60998
s(I6
I6
I5
I15
I20161117
I0
tp1553
I61253
s(I6
I6
I5
I37
I20161117
I0
tp1554
I61275
s(I6
I6
I4
I99
I20161117
I0
tp1555
I61234
s(I6
I7
I6
I41
I20161121
I0
tp1556
I61706
s(I6
I6
I3
I66
I20161117
I0
tp1557
I62036
s(I6
I5
I7
I17
I20161109
I0
tp1558
I60314
s(I6
I7
I3
I1
I20161121
I0
tp1559
I60928
s(I6
I5
I5
I55
I20161109
I0
tp1560
I60152
s(I6
I6
I1
I48
I20161117
I0
tp1561
I61811
s(I6
I5
I6
I52
I20161109
I0
tp1562
I60249
s(I6
I7
I1
I39
I20161121
I0
tp1563
I60734
s(I6
I7
I6
I32
I20161121
I0
tp1564
I61697
s(I6
I5
I6
I15
I20161109
I0
tp1565
I60212
s(I6
I5
I2
I69
I20161109
I0
tp1566
I60566
s(I6
I6
I6
I64
I20161117
I0
tp1567
I61403
s(I6
I5
I5
I45
I20161109
I0
tp1568
I60142
s(I6
I6
I2
I13
I20161117
I0
tp1569
I61879
s(I6
I5
I5
I10
I20161109
I0
tp1570
I60107
s(I6
I7
I6
I18
I20161121
I0
tp1571
I61683
s(I6
I6
I2
I42
I20161117
I0
tp1572
I61908
s(I6
I6
I5
I85
I20161117
I0
tp1573
I61323
s(I6
I5
I3
I11
I20161109
I0
tp1574
I60608
s(I6
I6
I2
I2
I20161117
I0
tp1575
I61868
s(I6
I7
I2
I77
I20161121
I0
tp1576
I60875
s(I6
I6
I1
I16
I20161117
I0
tp1577
I61779
s(I6
I5
I4
I52
I20161109
I0
tp1578
I60051
s(I6
I5
I3
I73
I20161109
I0
tp1579
I60670
s(I6
I7
I1
I100
I20161121
I0
tp1580
I60795
s(I6
I5
I5
I93
I20161109
I0
tp1581
I60190
s(I6
I6
I4
I86
I20161117
I0
tp1582
I61221
s(I6
I7
I5
I81
I20161121
I0
tp1583
I61640
s(I6
I6
I1
I35
I20161117
I0
tp1584
I61798
s(I6
I7
I1
I84
I20161121
I0
tp1585
I60779
s(I6
I6
I1
I43
I20161117
I0
tp1586
I61806
s(I6
I7
I2
I127
I20161121
I0
tp1587
I60925
s(I6
I7
I5
I23
I20161121
I0
tp1588
I61582
s(I6
I6
I3
I100
I20161117
I0
tp1589
I62070
s(I6
I7
I1
I18
I20161121
I0
tp1590
I60713
s(I6
I7
I2
I22
I20161121
I0
tp1591
I60820
s(I6
I6
I3
I76
I20161117
I0
tp1592
I62046
s(I6
I7
I3
I48
I20161121
I0
tp1593
I60975
s(I6
I5
I3
I57
I20161109
I0
tp1594
I60654
s(I6
I5
I5
I94
I20161109
I0
tp1595
I60191
s(I6
I5
I4
I22
I20161109
I0
tp1596
I60021
s(I6
I6
I3
I99
I20161117
I0
tp1597
I62069
s(I6
I7
I2
I70
I20161121
I0
tp1598
I60868
s(I6
I7
I3
I96
I20161121
I0
tp1599
I61023
s(I6
I5
I6
I21
I20161109
I0
tp1600
I60218
s(I6
I6
I2
I56
I20161117
I0
tp1601
I61922
s(I6
I6
I1
I64
I20161117
I0
tp1602
I61827
s(I6
I6
I6
I42
I20161117
I0
tp1603
I61381
s(I6
I5
I3
I88
I20161109
I0
tp1604
I60685
s(I6
I5
I2
I21
I20161109
I0
tp1605
I60518
s(I6
I7
I2
I8
I20161121
I0
tp1606
I60806
s(I6
I6
I5
I72
I20161117
I0
tp1607
I61310
s(I6
I7
I3
I34
I20161121
I0
tp1608
I60961
s(I6
I7
I4
I98
I20161121
I0
tp1609
I61126
s(I6
I5
I4
I50
I20161109
I0
tp1610
I60049
s(I6
I7
I6
I95
I20161121
I0
tp1611
I61760
s(I6
I6
I5
I80
I20161117
I0
tp1612
I61318
s(I6
I5
I4
I17
I20161109
I0
tp1613
I60016
s(I6
I6
I5
I51
I20161117
I0
tp1614
I61289
s(I6
I5
I1
I66
I20161109
I0
tp1615
I60465
s(I6
I7
I6
I3
I20161121
I0
tp1616
I61668
s(I6
I7
I3
I43
I20161121
I0
tp1617
I60970
s(I6
I5
I6
I54
I20161109
I0
tp1618
I60251
s(I6
I6
I5
I5
I20161117
I0
tp1619
I61243
s(I6
I6
I4
I67
I20161117
I0
tp1620
I61202
s(I6
I6
I1
I54
I20161117
I0
tp1621
I61817
s(I6
I6
I4
I76
I20161117
I0
tp1622
I61211
s(I6
I6
I7
I75
I20161117
I0
tp1623
I61528
s(I6
I6
I3
I64
I20161117
I0
tp1624
I62034
s(I6
I6
I7
I99
I20161117
I0
tp1625
I61552
s(I6
I7
I5
I106
I20161121
I0
tp1626
I61665
s(I6
I6
I3
I30
I20161117
I0
tp1627
I62000
s(I6
I5
I6
I72
I20161109
I0
tp1628
I60269
s(I6
I5
I3
I93
I20161109
I0
tp1629
I60690
s(I6
I7
I3
I9
I20161121
I0
tp1630
I60936
s(I6
I7
I5
I99
I20161121
I0
tp1631
I61658
s(I6
I7
I2
I119
I20161121
I0
tp1632
I60917
s(I6
I6
I2
I55
I20161117
I0
tp1633
I61921
s(I6
I6
I2
I34
I20161117
I0
tp1634
I61900
s(I6
I7
I1
I26
I20161121
I0
tp1635
I60721
s(I6
I5
I2
I70
I20161109
I0
tp1636
I60567
s(I6
I5
I5
I17
I20161109
I0
tp1637
I60114
s(I6
I7
I5
I33
I20161121
I0
tp1638
I61592
s(I6
I6
I5
I38
I20161117
I0
tp1639
I61276
s(I6
I7
I2
I57
I20161121
I0
tp1640
I60855
s(I6
I5
I4
I20
I20161109
I0
tp1641
I60019
s(I6
I6
I1
I8
I20161117
I0
tp1642
I61771
s(I6
I6
I5
I78
I20161117
I0
tp1643
I61316
s(I6
I5
I6
I76
I20161109
I0
tp1644
I60273
s(I6
I7
I2
I105
I20161121
I0
tp1645
I60903
s(I6
I6
I5
I41
I20161117
I0
tp1646
I61279
s(I6
I5
I7
I13
I20161109
I0
tp1647
I60310
s(I6
I5
I4
I19
I20161109
I0
tp1648
I60018
s(I6
I6
I3
I78
I20161117
I0
tp1649
I62048
s(I6
I7
I1
I8
I20161121
I0
tp1650
I60703
s(I6
I7
I3
I86
I20161121
I0
tp1651
I61013
s(I6
I5
I5
I3
I20161109
I0
tp1652
I60100
s(I6
I5
I1
I45
I20161109
I0
tp1653
I60444
s(I6
I6
I7
I94
I20161117
I0
tp1654
I61547
s(I6
I5
I2
I54
I20161109
I0
tp1655
I60551
s(I6
I6
I3
I29
I20161117
I0
tp1656
I61999
s(I6
I5
I7
I80
I20161109
I0
tp1657
I60377
s(I6
I5
I2
I3
I20161109
I0
tp1658
I60500
s(I6
I7
I2
I50
I20161121
I0
tp1659
I60848
s(I6
I7
I4
I72
I20161121
I0
tp1660
I61100
s(I6
I5
I5
I33
I20161109
I0
tp1661
I60130
s(I6
I7
I6
I49
I20161121
I0
tp1662
I61714
s(I6
I6
I3
I48
I20161117
I0
tp1663
I62018
s(I6
I5
I2
I53
I20161109
I0
tp1664
I60550
s(I6
I5
I1
I25
I20161109
I0
tp1665
I60424
s(I6
I7
I3
I68
I20161121
I0
tp1666
I60995
s(I6
I6
I1
I94
I20161117
I0
tp1667
I61857
s(I6
I5
I3
I91
I20161109
I0
tp1668
I60688
s(I6
I6
I5
I48
I20161117
I0
tp1669
I61286
s(I6
I5
I6
I44
I20161109
I0
tp1670
I60241
s(I6
I6
I5
I19
I20161117
I0
tp1671
I61257
s(I6
I6
I1
I12
I20161117
I0
tp1672
I61775
s(I6
I5
I3
I85
I20161109
I0
tp1673
I60682
s(I6
I7
I1
I91
I20161121
I0
tp1674
I60786
s(I6
I5
I1
I43
I20161109
I0
tp1675
I60442
s(I6
I7
I2
I32
I20161121
I0
tp1676
I60830
s(I6
I7
I4
I90
I20161121
I0
tp1677
I61118
s(I6
I7
I5
I48
I20161121
I0
tp1678
I61607
s(I6
I6
I1
I46
I20161117
I0
tp1679
I61809
s(I6
I7
I3
I42
I20161121
I0
tp1680
I60969
s(I6
I7
I4
I106
I20161121
I0
tp1681
I61134
s(I6
I7
I5
I64
I20161121
I0
tp1682
I61623
s(I6
I5
I3
I8
I20161109
I0
tp1683
I60605
s(I6
I6
I3
I96
I20161117
I0
tp1684
I62066
s(I6
I7
I4
I40
I20161121
I0
tp1685
I61068
s(I6
I6
I7
I56
I20161117
I0
tp1686
I61509
s(I6
I7
I5
I6
I20161121
I0
tp1687
I61565
s(I6
I5
I4
I55
I20161109
I0
tp1688
I60054
s(I6
I6
I7
I80
I20161117
I0
tp1689
I61533
s(I6
I7
I2
I103
I20161121
I0
tp1690
I60901
s(I6
I6
I7
I63
I20161117
I0
tp1691
I61516
s(I6
I5
I6
I91
I20161109
I0
tp1692
I60288
s(I6
I5
I5
I11
I20161109
I0
tp1693
I60108
s(I6
I5
I2
I25
I20161109
I0
tp1694
I60522
s(I6
I7
I5
I63
I20161121
I0
tp1695
I61622
s(I6
I6
I5
I76
I20161117
I0
tp1696
I61314
s(I6
I7
I2
I35
I20161121
I0
tp1697
I60833
s(I6
I5
I4
I62
I20161109
I0
tp1698
I60061
s(I6
I6
I5
I91
I20161117
I0
tp1699
I61329
s(I6
I6
I6
I62
I20161117
I0
tp1700
I61401
s(I6
I5
I2
I95
I20161109
I0
tp1701
I60592
s(I6
I6
I2
I22
I20161117
I0
tp1702
I61888
s(I6
I6
I5
I46
I20161117
I0
tp1703
I61284
s(I6
I6
I6
I38
I20161117
I0
tp1704
I61377
s(I6
I6
I5
I9
I20161117
I0
tp1705
I61247
s(I6
I5
I2
I28
I20161109
I0
tp1706
I60525
s(I6
I6
I5
I17
I20161117
I0
tp1707
I61255
s(I6
I5
I2
I45
I20161109
I0
tp1708
I60542
s(I6
I5
I1
I13
I20161109
I0
tp1709
I60412
s(I6
I7
I2
I69
I20161121
I0
tp1710
I60867
s(I6
I6
I4
I33
I20161117
I0
tp1711
I61168
s(I6
I5
I3
I37
I20161109
I0
tp1712
I60634
s(I6
I6
I2
I101
I20161117
I0
tp1713
I61967
s(I6
I5
I6
I46
I20161109
I0
tp1714
I60243
s(I6
I6
I3
I61
I20161117
I0
tp1715
I62031
s(I6
I5
I1
I10
I20161109
I0
tp1716
I60409
s(I6
I7
I2
I1
I20161121
I0
tp1717
I60799
s(I6
I6
I3
I26
I20161117
I0
tp1718
I61996
s(I6
I6
I6
I111
I20161117
I0
tp1719
I61450
s(I6
I7
I1
I67
I20161121
I0
tp1720
I60762
s(I6
I5
I2
I35
I20161109
I0
tp1721
I60532
s(I6
I5
I1
I51
I20161109
I0
tp1722
I60450
s(I6
I6
I2
I94
I20161117
I0
tp1723
I61960
s(I6
I6
I6
I16
I20161117
I0
tp1724
I61355
s(I6
I7
I4
I57
I20161121
I0
tp1725
I61085
s(I6
I6
I6
I36
I20161117
I0
tp1726
I61375
s(I6
I6
I3
I56
I20161117
I0
tp1727
I62026
s(I6
I7
I1
I1
I20161121
I0
tp1728
I60696
s(I6
I5
I4
I92
I20161109
I0
tp1729
I60091
s(I6
I7
I3
I40
I20161121
I0
tp1730
I60967
s(I6
I7
I3
I95
I20161121
I0
tp1731
I61022
s(I6
I7
I5
I66
I20161121
I0
tp1732
I61625
s(I6
I7
I4
I73
I20161121
I0
tp1733
I61101
s(I6
I6
I2
I17
I20161117
I0
tp1734
I61883
s(I6
I5
I2
I74
I20161109
I0
tp1735
I60571
s(I6
I7
I3
I24
I20161121
I0
tp1736
I60951
s(I6
I7
I4
I32
I20161121
I0
tp1737
I61060
s(I6
I7
I5
I14
I20161121
I0
tp1738
I61573
s(I6
I5
I1
I67
I20161109
I0
tp1739
I60466
s(I6
I5
I6
I71
I20161109
I0
tp1740
I60268
s(I6
I5
I4
I78
I20161109
I0
tp1741
I60077
s(I6
I6
I5
I4
I20161117
I0
tp1742
I61242
s(I6
I7
I6
I72
I20161121
I0
tp1743
I61737
s(I6
I5
I7
I44
I20161109
I0
tp1744
I60341
s(I6
I6
I4
I37
I20161117
I0
tp1745
I61172
s(I6
I7
I4
I62
I20161121
I0
tp1746
I61090
s(I6
I6
I7
I82
I20161117
I0
tp1747
I61535
s(I6
I7
I5
I28
I20161121
I0
tp1748
I61587
s(I6
I6
I7
I74
I20161117
I0
tp1749
I61527
s(I6
I6
I2
I84
I20161117
I0
tp1750
I61950
s(I6
I6
I4
I7
I20161117
I0
tp1751
I61142
s(I6
I6
I3
I82
I20161117
I0
tp1752
I62052
s(I6
I6
I7
I48
I20161117
I0
tp1753
I61501
s(I6
I5
I7
I34
I20161109
I0
tp1754
I60331
s(I6
I5
I3
I35
I20161109
I0
tp1755
I60632
s(I6
I5
I4
I60
I20161109
I0
tp1756
I60059
s(I6
I6
I7
I31
I20161117
I0
tp1757
I61484
s(I6
I6
I6
I89
I20161117
I0
tp1758
I61428
s(I6
I6
I3
I60
I20161117
I0
tp1759
I62030
s(I6
I6
I6
I113
I20161117
I0
tp1760
I61452
s(I6
I5
I2
I57
I20161109
I0
tp1761
I60554
s(I6
I5
I1
I21
I20161109
I0
tp1762
I60420
s(I6
I6
I1
I90
I20161117
I0
tp1763
I61853
s(I6
I5
I1
I46
I20161109
I0
tp1764
I60445
s(I6
I6
I2
I36
I20161117
I0
tp1765
I61902
s(I6
I6
I5
I82
I20161117
I0
tp1766
I61320
s(I6
I5
I3
I17
I20161109
I0
tp1767
I60614
s(I6
I5
I3
I50
I20161109
I0
tp1768
I60647
s(I6
I5
I2
I96
I20161109
I0
tp1769
I60593
s(I6
I5
I4
I66
I20161109
I0
tp1770
I60065
s(I6
I5
I1
I39
I20161109
I0
tp1771
I60438
s(I6
I7
I2
I111
I20161121
I0
tp1772
I60909
s(I6
I5
I5
I46
I20161109
I0
tp1773
I60143
s(I6
I7
I2
I49
I20161121
I0
tp1774
I60847
s(I6
I7
I2
I94
I20161121
I0
tp1775
I60892
s(I6
I7
I4
I75
I20161121
I0
tp1776
I61103
s(I6
I5
I4
I72
I20161109
I0
tp1777
I60071
s(I6
I6
I3
I65
I20161117
I0
tp1778
I62035
s(I6
I5
I6
I31
I20161109
I0
tp1779
I60228
s(I6
I6
I3
I58
I20161117
I0
tp1780
I62028
s(I6
I6
I7
I60
I20161117
I0
tp1781
I61513
s(I6
I7
I4
I15
I20161121
I0
tp1782
I61043
s(I6
I6
I3
I2
I20161117
I0
tp1783
I61972
s(I6
I7
I1
I55
I20161121
I0
tp1784
I60750
s(I6
I5
I4
I70
I20161109
I0
tp1785
I60069
s(I6
I5
I6
I98
I20161109
I0
tp1786
I60295
s(I6
I5
I3
I71
I20161109
I0
tp1787
I60668
s(I6
I6
I6
I4
I20161117
I0
tp1788
I61343
s(I6
I6
I2
I86
I20161117
I0
tp1789
I61952
s(I6
I6
I6
I60
I20161117
I0
tp1790
I61399
s(I6
I5
I2
I52
I20161109
I0
tp1791
I60549
s(I6
I5
I1
I96
I20161109
I0
tp1792
I60495
s(I6
I5
I7
I35
I20161109
I0
tp1793
I60332
s(I6
I6
I6
I1
I20161117
I0
tp1794
I61340
s(I6
I5
I1
I69
I20161109
I0
tp1795
I60468
s(I6
I6
I4
I70
I20161117
I0
tp1796
I61205
s(I6
I5
I3
I55
I20161109
I0
tp1797
I60652
s(I6
I7
I6
I7
I20161121
I0
tp1798
I61672
s(I6
I6
I7
I105
I20161117
I0
tp1799
I61558
s(I6
I7
I1
I25
I20161121
I0
tp1800
I60720
s(I6
I5
I7
I23
I20161109
I0
tp1801
I60320
s(I6
I6
I4
I45
I20161117
I0
tp1802
I61180
s(I6
I6
I3
I84
I20161117
I0
tp1803
I62054
s(I6
I5
I1
I33
I20161109
I0
tp1804
I60432
s(I6
I6
I7
I42
I20161117
I0
tp1805
I61495
s(I6
I6
I4
I28
I20161117
I0
tp1806
I61163
s(I6
I7
I6
I73
I20161121
I0
tp1807
I61738
s(I6
I7
I3
I97
I20161121
I0
tp1808
I61024
s(I6
I7
I6
I83
I20161121
I0
tp1809
I61748
s(I6
I7
I5
I56
I20161121
I0
tp1810
I61615
s(I6
I5
I2
I98
I20161109
I0
tp1811
I60595
s(I6
I7
I3
I81
I20161121
I0
tp1812
I61008
s(I6
I5
I7
I37
I20161109
I0
tp1813
I60334
s(I6
I7
I5
I72
I20161121
I0
tp1814
I61631
s(I6
I7
I4
I22
I20161121
I0
tp1815
I61050
s(I6
I7
I6
I64
I20161121
I0
tp1816
I61729
s(I6
I6
I3
I36
I20161117
I0
tp1817
I62006
s(I6
I7
I1
I82
I20161121
I0
tp1818
I60777
s(I6
I7
I6
I2
I20161121
I0
tp1819
I61667
s(I6
I7
I1
I16
I20161121
I0
tp1820
I60711
s(I6
I7
I6
I50
I20161121
I0
tp1821
I61715
s(I6
I6
I1
I14
I20161117
I0
tp1822
I61777
s(I6
I6
I1
I102
I20161117
I0
tp1823
I61865
s(I6
I7
I2
I72
I20161121
I0
tp1824
I60870
s(I6
I6
I5
I8
I20161117
I0
tp1825
I61246
s(I6
I7
I4
I81
I20161121
I0
tp1826
I61109
s(I6
I5
I6
I1
I20161109
I0
tp1827
I60198
s(I6
I7
I1
I68
I20161121
I0
tp1828
I60763
s(I6
I6
I3
I38
I20161117
I0
tp1829
I62008
s(I6
I6
I4
I68
I20161117
I0
tp1830
I61203
s(I6
I6
I7
I6
I20161117
I0
tp1831
I61459
s(I6
I7
I4
I31
I20161121
I0
tp1832
I61059
s(I6
I6
I7
I65
I20161117
I0
tp1833
I61518
s(I6
I6
I3
I62
I20161117
I0
tp1834
I62032
s(I6
I6
I2
I72
I20161117
I0
tp1835
I61938
s(I6
I5
I6
I24
I20161109
I0
tp1836
I60221
s(I6
I6
I4
I3
I20161117
I0
tp1837
I61138
s(I6
I6
I7
I52
I20161117
I0
tp1838
I61505
s(I6
I5
I1
I81
I20161109
I0
tp1839
I60480
s(I6
I7
I2
I118
I20161121
I0
tp1840
I60916
s(I6
I7
I4
I35
I20161121
I0
tp1841
I61063
s(I6
I7
I1
I54
I20161121
I0
tp1842
I60749
s(I6
I5
I7
I3
I20161109
I0
tp1843
I60300
s(I6
I6
I6
I59
I20161117
I0
tp1844
I61398
s(I6
I5
I1
I95
I20161109
I0
tp1845
I60494
s(I6
I6
I5
I86
I20161117
I0
tp1846
I61324
s(I6
I5
I3
I29
I20161109
I0
tp1847
I60626
s(I6
I5
I4
I36
I20161109
I0
tp1848
I60035
s(I6
I7
I2
I104
I20161121
I0
tp1849
I60902
s(I6
I7
I4
I49
I20161121
I0
tp1850
I61077
s(I6
I5
I2
I65
I20161109
I0
tp1851
I60562
s(I6
I6
I4
I78
I20161117
I0
tp1852
I61213
s(I6
I7
I3
I87
I20161121
I0
tp1853
I61014
s(I6
I6
I1
I51
I20161117
I0
tp1854
I61814
s(I6
I7
I6
I35
I20161121
I0
tp1855
I61700
s(I6
I5
I2
I6
I20161109
I0
tp1856
I60503
s(I6
I7
I3
I11
I20161121
I0
tp1857
I60938
s(I6
I7
I5
I22
I20161121
I0
tp1858
I61581
s(I6
I7
I5
I97
I20161121
I0
tp1859
I61656
s(I6
I5
I2
I72
I20161109
I0
tp1860
I60569
s(I6
I5
I7
I64
I20161109
I0
tp1861
I60361
s(I6
I7
I5
I39
I20161121
I0
tp1862
I61598
s(I6
I6
I3
I27
I20161117
I0
tp1863
I61997
s(I6
I6
I6
I109
I20161117
I0
tp1864
I61448
s(I6
I5
I4
I77
I20161109
I0
tp1865
I60076
s(I6
I6
I7
I30
I20161117
I0
tp1866
I61483
s(I6
I6
I2
I74
I20161117
I0
tp1867
I61940
s(I6
I5
I5
I54
I20161109
I0
tp1868
I60151
s(I6
I6
I1
I88
I20161117
I0
tp1869
I61851
s(I6
I6
I6
I66
I20161117
I0
tp1870
I61405
s(I6
I5
I7
I86
I20161109
I0
tp1871
I60383
s(I6
I5
I6
I60
I20161109
I0
tp1872
I60257
s(I6
I6
I1
I73
I20161117
I0
tp1873
I61836
s(I6
I6
I5
I43
I20161117
I0
tp1874
I61281
s(I6
I6
I6
I29
I20161117
I0
tp1875
I61368
s(I6
I5
I6
I55
I20161109
I0
tp1876
I60252
s(I6
I6
I1
I6
I20161117
I0
tp1877
I61769
s(I6
I5
I5
I56
I20161109
I0
tp1878
I60153
s(I6
I5
I1
I89
I20161109
I0
tp1879
I60488
s(I6
I7
I5
I65
I20161121
I0
tp1880
I61624
s(I6
I5
I6
I97
I20161109
I0
tp1881
I60294
s(I6
I5
I1
I40
I20161109
I0
tp1882
I60439
s(I6
I6
I4
I36
I20161117
I0
tp1883
I61171
s(I6
I5
I2
I59
I20161109
I0
tp1884
I60556
s(I6
I7
I3
I70
I20161121
I0
tp1885
I60997
s(I6
I5
I7
I32
I20161109
I0
tp1886
I60329
s(I6
I6
I4
I79
I20161117
I0
tp1887
I61214
s(I6
I6
I7
I72
I20161117
I0
tp1888
I61525
s(I6
I7
I2
I96
I20161121
I0
tp1889
I60894
s(I6
I6
I2
I40
I20161117
I0
tp1890
I61906
s(I6
I6
I7
I32
I20161117
I0
tp1891
I61485
s(I6
I7
I1
I38
I20161121
I0
tp1892
I60733
s(I6
I7
I2
I34
I20161121
I0
tp1893
I60832
s(I6
I7
I4
I88
I20161121
I0
tp1894
I61116
s(I6
I7
I6
I33
I20161121
I0
tp1895
I61698
s(I6
I6
I2
I28
I20161117
I0
tp1896
I61894
s(I6
I7
I2
I18
I20161121
I0
tp1897
I60816
s(I6
I7
I4
I7
I20161121
I0
tp1898
I61035
s(I6
I7
I4
I104
I20161121
I0
tp1899
I61132
s(I6
I7
I6
I81
I20161121
I0
tp1900
I61746
s(I6
I6
I2
I33
I20161117
I0
tp1901
I61899
s(I6
I5
I4
I21
I20161109
I0
tp1902
I60020
s(I6
I6
I2
I58
I20161117
I0
tp1903
I61924
s(I6
I5
I5
I70
I20161109
I0
tp1904
I60167
s(I6
I5
I2
I97
I20161109
I0
tp1905
I60594
s(I6
I5
I7
I84
I20161109
I0
tp1906
I60381
s(I6
I5
I6
I58
I20161109
I0
tp1907
I60255
s(I6
I7
I3
I59
I20161121
I0
tp1908
I60986
s(I6
I6
I5
I1
I20161117
I0
tp1909
I61239
s(I6
I5
I6
I29
I20161109
I0
tp1910
I60226
s(I6
I5
I1
I61
I20161109
I0
tp1911
I60460
s(I6
I5
I3
I54
I20161109
I0
tp1912
I60651
s(I6
I6
I3
I86
I20161117
I0
tp1913
I62056
s(I6
I5
I5
I72
I20161109
I0
tp1914
I60169
s(I6
I5
I4
I42
I20161109
I0
tp1915
I60041
s(I6
I7
I6
I71
I20161121
I0
tp1916
I61736
s(I6
I6
I4
I26
I20161117
I0
tp1917
I61161
s(I6
I5
I6
I40
I20161109
I0
tp1918
I60237
s(I6
I6
I7
I61
I20161117
I0
tp1919
I61514
s(I6
I7
I2
I85
I20161121
I0
tp1920
I60883
s(I6
I5
I6
I57
I20161109
I0
tp1921
I60254
s(I6
I5
I6
I11
I20161109
I0
tp1922
I60208
s(I6
I5
I7
I75
I20161109
I0
tp1923
I60372
s(I6
I6
I6
I92
I20161117
I0
tp1924
I61431
s(I6
I5
I1
I77
I20161109
I0
tp1925
I60476
s(I6
I6
I1
I95
I20161117
I0
tp1926
I61858
s(I6
I5
I4
I90
I20161109
I0
tp1927
I60089
s(I6
I6
I6
I34
I20161117
I0
tp1928
I61373
s(I6
I5
I1
I15
I20161109
I0
tp1929
I60414
s(I6
I7
I2
I71
I20161121
I0
tp1930
I60869
s(I6
I6
I6
I90
I20161117
I0
tp1931
I61429
s(I6
I6
I2
I6
I20161117
I0
tp1932
I61872
s(I6
I6
I5
I97
I20161117
I0
tp1933
I61335
s(I6
I7
I5
I95
I20161121
I0
tp1934
I61654
s(I6
I5
I6
I23
I20161109
I0
tp1935
I60220
s(I6
I5
I2
I93
I20161109
I0
tp1936
I60590
s(I6
I6
I4
I74
I20161117
I0
tp1937
I61209
s(I6
I7
I2
I78
I20161121
I0
tp1938
I60876
s(I6
I6
I4
I96
I20161117
I0
tp1939
I61231
s(I6
I5
I6
I64
I20161109
I0
tp1940
I60261
s(I6
I7
I5
I29
I20161121
I0
tp1941
I61588
s(I6
I5
I1
I8
I20161109
I0
tp1942
I60407
s(I6
I5
I5
I15
I20161109
I0
tp1943
I60112
s(I6
I7
I2
I16
I20161121
I0
tp1944
I60814
s(I6
I6
I4
I47
I20161117
I0
tp1945
I61182
s(I6
I5
I2
I83
I20161109
I0
tp1946
I60580
s(I6
I6
I4
I55
I20161117
I0
tp1947
I61190
s(I6
I7
I3
I26
I20161121
I0
tp1948
I60953
s(I6
I6
I3
I72
I20161117
I0
tp1949
I62042
s(I6
I5
I5
I82
I20161109
I0
tp1950
I60179
s(I6
I5
I4
I12
I20161109
I0
tp1951
I60011
s(I6
I6
I7
I54
I20161117
I0
tp1952
I61507
s(I6
I6
I2
I31
I20161117
I0
tp1953
I61897
s(I6
I6
I7
I7
I20161117
I0
tp1954
I61460
s(I6
I5
I4
I11
I20161109
I0
tp1955
I60010
s(I6
I6
I2
I60
I20161117
I0
tp1956
I61926
s(I6
I7
I3
I78
I20161121
I0
tp1957
I61005
s(I6
I6
I2
I20
I20161117
I0
tp1958
I61886
s(I6
I6
I6
I94
I20161117
I0
tp1959
I61433
s(I6
I5
I2
I79
I20161109
I0
tp1960
I60576
s(I6
I6
I1
I69
I20161117
I0
tp1961
I61832
s(I6
I6
I5
I84
I20161117
I0
tp1962
I61322
s(I6
I7
I1
I97
I20161121
I0
tp1963
I60792
s(I6
I5
I7
I24
I20161109
I0
tp1964
I60321
s(I6
I7
I3
I8
I20161121
I0
tp1965
I60935
s(I6
I7
I5
I98
I20161121
I0
tp1966
I61657
s(I6
I5
I6
I26
I20161109
I0
tp1967
I60223
s(I6
I7
I1
I81
I20161121
I0
tp1968
I60776
s(I6
I7
I2
I42
I20161121
I0
tp1969
I60840
s(I6
I5
I7
I95
I20161109
I0
tp1970
I60392
s(I6
I6
I2
I30
I20161117
I0
tp1971
I61896
s(I6
I7
I4
I64
I20161121
I0
tp1972
I61092
s(I6
I6
I5
I10
I20161117
I0
tp1973
I61248
s(I6
I5
I1
I12
I20161109
I0
tp1974
I60411
s(I6
I6
I5
I18
I20161117
I0
tp1975
I61256
s(I6
I7
I3
I58
I20161121
I0
tp1976
I60985
s(I6
I6
I7
I96
I20161117
I0
tp1977
I61549
s(I6
I5
I7
I29
I20161109
I0
tp1978
I60326
s(I6
I5
I3
I83
I20161109
I0
tp1979
I60680
s(I6
I6
I4
I2
I20161117
I0
tp1980
I61137
s(I6
I7
I5
I89
I20161121
I0
tp1981
I61648
s(I6
I6
I7
I103
I20161117
I0
tp1982
I61556
s(I6
I7
I4
I94
I20161121
I0
tp1983
I61122
s(I6
I7
I6
I43
I20161121
I0
tp1984
I61708
s(I6
I6
I6
I84
I20161117
I0
tp1985
I61423
s(I6
I7
I5
I105
I20161121
I0
tp1986
I61664
s(I6
I7
I2
I113
I20161121
I0
tp1987
I60911
s(I6
I5
I3
I65
I20161109
I0
tp1988
I60662
s(I6
I5
I3
I80
I20161109
I0
tp1989
I60677
s(I6
I7
I5
I47
I20161121
I0
tp1990
I61606
s(I6
I7
I2
I51
I20161121
I0
tp1991
I60849
s(I6
I6
I2
I38
I20161117
I0
tp1992
I61904
s(I6
I6
I2
I62
I20161117
I0
tp1993
I61928
s(I6
I5
I5
I90
I20161109
I0
tp1994
I60187
s(I6
I5
I3
I7
I20161109
I0
tp1995
I60604
s(I6
I6
I1
I4
I20161117
I0
tp1996
I61767
s(I6
I5
I4
I56
I20161109
I0
tp1997
I60055
s(I6
I6
I1
I53
I20161117
I0
tp1998
I61816
s(I6
I5
I6
I96
I20161109
I0
tp1999
I60293
s(I6
I6
I3
I54
I20161117
I0
tp2000
I62024
s(I6
I5
I3
I69
I20161109
I0
tp2001
I60666
s(I6
I5
I6
I67
I20161109
I0
tp2002
I60264
s(I6
I7
I2
I79
I20161121
I0
tp2003
I60877
s(I6
I6
I7
I47
I20161117
I0
tp2004
I61500
s(I6
I5
I5
I76
I20161109
I0
tp2005
I60173
s(I6
I5
I4
I54
I20161109
I0
tp2006
I60053
s(I6
I6
I4
I6
I20161117
I0
tp2007
I61141
s(I6
I6
I3
I67
I20161117
I0
tp2008
I62037
s(I6
I6
I7
I49
I20161117
I0
tp2009
I61502
s(I6
I7
I2
I17
I20161121
I0
tp2010
I60815
s(I6
I6
I2
I83
I20161117
I0
tp2011
I61949
s(I6
I7
I4
I107
I20161121
I0
tp2012
I61135
s(I6
I5
I2
I100
I20161109
I0
tp2013
I60597
s(I6
I7
I1
I83
I20161121
I0
tp2014
I60778
s(I6
I7
I1
I23
I20161121
I0
tp2015
I60718
s(I6
I5
I7
I38
I20161109
I0
tp2016
I60335
s(I6
I7
I3
I50
I20161121
I0
tp2017
I60977
s(I6
I6
I5
I52
I20161117
I0
tp2018
I61290
s(I6
I6
I2
I35
I20161117
I0
tp2019
I61901
s(I6
I6
I5
I92
I20161117
I0
tp2020
I61330
s(I6
I7
I4
I80
I20161121
I0
tp2021
I61108
s(I6
I7
I5
I62
I20161121
I0
tp2022
I61621
s(I6
I6
I5
I63
I20161117
I0
tp2023
I61301
s(I6
I5
I2
I27
I20161109
I0
tp2024
I60524
s(I6
I7
I3
I44
I20161121
I0
tp2025
I60971
s(I6
I7
I4
I20
I20161121
I0
tp2026
I61048
s(I6
I7
I6
I66
I20161121
I0
tp2027
I61731
s(I6
I6
I1
I42
I20161117
I0
tp2028
I61805
s(I6
I5
I6
I70
I20161109
I0
tp2029
I60267
s(I6
I7
I6
I28
I20161121
I0
tp2030
I61693
s(I6
I6
I2
I80
I20161117
I0
tp2031
I61946
s(I6
I5
I3
I70
I20161109
I0
tp2032
I60667
s(I6
I5
I5
I78
I20161109
I0
tp2033
I60175
s(I6
I5
I4
I48
I20161109
I0
tp2034
I60047
s(I6
I7
I5
I5
I20161121
I0
tp2035
I61564
s(I6
I6
I7
I27
I20161117
I0
tp2036
I61480
s(I6
I7
I3
I65
I20161121
I0
tp2037
I60992
s(I6
I7
I5
I88
I20161121
I0
tp2038
I61647
s(I6
I6
I6
I11
I20161117
I0
tp2039
I61350
s(I6
I6
I2
I85
I20161117
I0
tp2040
I61951
s(I6
I5
I6
I69
I20161109
I0
tp2041
I60266
s(I6
I7
I1
I66
I20161121
I0
tp2042
I60761
s(I6
I6
I6
I35
I20161117
I0
tp2043
I61374
s(I6
I7
I6
I96
I20161121
I0
tp2044
I61761
s(I6
I5
I4
I34
I20161109
I0
tp2045
I60033
s(I6
I6
I1
I11
I20161117
I0
tp2046
I61774
s(I6
I7
I4
I99
I20161121
I0
tp2047
I61127
s(I6
I5
I4
I51
I20161109
I0
tp2048
I60050
s(I6
I7
I6
I34
I20161121
I0
tp2049
I61699
s(I6
I5
I7
I58
I20161109
I0
tp2050
I60355
s(I6
I5
I5
I35
I20161109
I0
tp2051
I60132
s(I6
I6
I5
I58
I20161117
I0
tp2052
I61296
s(I6
I5
I3
I64
I20161109
I0
tp2053
I60661
s(I6
I5
I2
I22
I20161109
I0
tp2054
I60519
s(I6
I7
I4
I33
I20161121
I0
tp2055
I61061
s(I6
I6
I5
I21
I20161117
I0
tp2056
I61259
s(I6
I5
I2
I49
I20161109
I0
tp2057
I60546
s(I6
I7
I2
I59
I20161121
I0
tp2058
I60857
s(I6
I5
I7
I1
I20161109
I0
tp2059
I60298
s(I6
I7
I1
I73
I20161121
I0
tp2060
I60768
s(I6
I5
I3
I9
I20161109
I0
tp2061
I60606
s(I6
I6
I7
I66
I20161117
I0
tp2062
I61519
s(I6
I5
I2
I4
I20161109
I0
tp2063
I60501
s(I6
I7
I4
I63
I20161121
I0
tp2064
I61091
s(I6
I5
I5
I83
I20161109
I0
tp2065
I60180
s(I6
I7
I1
I7
I20161121
I0
tp2066
I60702
s(I6
I5
I6
I37
I20161109
I0
tp2067
I60234
s(I6
I6
I2
I29
I20161117
I0
tp2068
I61895
s(I6
I5
I7
I6
I20161109
I0
tp2069
I60303
s(I6
I5
I3
I92
I20161109
I0
tp2070
I60689
s(I6
I7
I4
I38
I20161121
I0
tp2071
I61066
s(I6
I7
I2
I86
I20161121
I0
tp2072
I60884
s(I6
I7
I4
I67
I20161121
I0
tp2073
I61095
s(I6
I5
I4
I64
I20161109
I0
tp2074
I60063
s(I6
I6
I1
I67
I20161117
I0
tp2075
I61830
s(I6
I5
I1
I37
I20161109
I0
tp2076
I60436
s.